reading_no	sample_measurement_id	sample_id	site_id	parish	patina	munsell_hue	munsell_value	hue	color	material	artefact	type	note_measurement	texture_1	texture_2	luster	sedimentary_structures	foliation	topography	homogeneity	inclusion	surface	sample_size	t[1]	t[2]	t[3]
619	1	1	MV	Bjurholm	No	2.5Y	 8/2	Translucent	Translucent	Quartzite	Point	Point	MV	Massive	Fine-grained	Bright vitreous	None	None	Fine	Yes	MV	MV	Medium	7.572201194513122	-0.5280739060237838	0.8686035925786495
620	2	2	Bjurholm 336	Bjurholm	No	N1	 	Dark	Black	Quartzite	Arrow point fragment	Point fragment	MV	Granular	Medium-grained	Bright vitreous	None	None	Fine	Yes	MV	MV	Small	-2.3093802298551234	0.5750079056937885	-1.6204187616559746
621	3a	3	Bjurholm 335	Bjurholm	Yes	7.5Y	 3/1	Light	Gray	Quartzite	Arrow point preform	Preform	Base	Granular	Medium-grained	Bright vitreous	Possible bedding	None	Fine	Yes	MV	Iron oxide	Medium	-1.115425900102537	0.24258116024659826	1.269978887766559
622	3b	3	Bjurholm 335	Bjurholm	Yes	7.5Y	 3/1	Light	Gray	Quartzite	Arrow point preform	Preform	Tip, oxidized	Granular	Medium-grained	Bright vitreous	Possible bedding	None	Fine	Yes	MV	Iron oxide	Medium	0.1688807713103458	2.4760730000436117	2.25139965348045
623	4	4	Bjurholm 335	Bjurholm	Yes	N1	 	Dark	Black	Quartzite	Arrow point fragment	Point fragment	MV	Granular	Medium-grained	Bright vitreous	None	None	Fine	Yes	MV	MV	Small	-0.06033342360469596	0.8571288101677645	0.8266350109222163
624	5	5	Bjurholm 335	Bjurholm	No	2.5Y	 9/1	Light	Opaque	Breccie quartz	Arrow point fragment	Point fragment	MV	Massive	Fine-grained	Bright vitreous	None	None	Fine	No	Dark mineral grains	MV	Small	-1.7605915401095447	-0.25236251148148375	0.9824309497283565
625	6	6	Burträsk 32	Burträsk	No	N4	 	Light	Gray	Quartzite	Point fragment	Point fragment	MV	Massive	Fine-grained	Dull	None	None	Conchoidal	No	Quartz	MV	Small	7.299686560718576	0.8868173109438272	2.4781960284038145
626	7	7	Burträsk 181	Burträsk	Yes	5Y	 9/2	Light	Opaque	Quartz	Point preform	Preform	MV	Massive	Massive	Bright vitreous	None	None	Irregular	Yes	MV	MV	Large	-3.3407213028344485	-3.584750675541621	0.8953778980323002
627	7	7	Burträsk 181	Burträsk	Yes	5Y	 9/2	Light	Opaque	Quartz	Point preform	Preform	MV	Massive	Massive	Bright vitreous	None	None	Irregular	Yes	MV	MV	Large	-2.3000017635841283	-4.392197800228265	1.2530477240709705
628	8	8	MV	Bygdeå	No	N2	 	Dark	Gray	Quartzite	Point	Point	MV	Granular	Medium-grained	Bright vitreous	Possible bedding	None	Conchoidal	Yes	MV	Silicon on one side	Medium	-0.6767231766980066	0.8260399942135253	-1.1450980966303947
629	9	9	MV	Degerfors	No	5Y	 9/2	Light	Opaque	Quartz	Point	Point	MV	Massive	Fine-grained	Waxy	None	None	Conchoidal	Yes	MV	MV	Medium	-4.9490039586042105	-3.27723786451314	-0.07103679338082543
630	10	10	MV	Degerfors	No	5Y	 8/2	Light	Opaque	Quartzite	Arrow point	Point	MV	Massive	Medium-grained	Waxy	None	None	Fine	No	Dark mineral grains	MV	Small	-5.429857917242583	-2.454716645833809	-0.23857779973240217
631	11	11	MV	Degerfors	No	5Y	 8/1	Light	Opaque	Quartzite	Point	Point	MV	Granular	Medium-grained	Bright vitreous	None	None	Smooth	Yes	MV	MV	Small	-3.022509200629002	-1.8678844663770742	0.6777027158540825
632	12	12	MV	Degerfors	No	7.5Y	 8/2	Light	Opaque	Breccie quartz	Point	Point	MV	Massive	Medium-grained	Waxy	None	None	Conchoidal	No	Dark mineral grains	MV	Medium	-3.2989264223648904	-1.755479036472781	0.3322278579927284
633	13	13	MV	Degerfors	No	10Y	 6/3	White	White	Quartzite	Point	Point	MV	Massive	Fine-grained	Bright vitreous	None	Yes	Conchoidal	Yes	MV	MV	Medium	6.198995895527018	-0.4473899086393089	0.00909020570524382
634	14a	14	Degerfors 318	Degerfors	Yes	10Y	 9/1	White	White	Quartzite	Point preform	Preform	Sample point on quartz surface	Granular	Coarse-grained	Dull	None	Yes	Conchoidal	No	Quartz	Quartz in other matrix	Medium	1.5199849849758007	2.0392272067209953	1.4127021448551431
635	14b	14	Degerfors 318	Degerfors	Yes	10Y	 9/1	White	White	Quartzite	Point preform	Preform	Sample point on white matrix	Granular	Coarse-grained	Dull	None	Yes	Conchoidal	No	Quartz	Quartz in other matrix	Medium	0.8773393394300937	2.0152990573159397	1.228341264319737
636	15	15	Lycksele 301	Lycksele	Yes	2.5Y	 9/1	Light	Opaque	Quartz	Point preform	Preform	MV	Massive	Massive	Bright vitreous	None	None	Irregular	Yes	MV	Iron oxide or dirt	Medium	-2.5272137868292965	0.4191573275802781	-0.7924347794795521
637	16	16	Lycksele 301	Lycksele	Yes	N9	 	White	White	Quartz	Point	Point	MV	Massive	Fine-grained	Waxy	None	None	Fine	Yes	MV	Iron oxide or dirt	Medium	-2.7733227839714294	-1.1704589934048364	-0.20460667049851927
638	17	17	Lycksele 301	Lycksele	Yes	N2	 	Dark	Black	Quartzite	Arrow point fragment	Point fragment	MV	Granular	Medium-grained	Bright vitreous	None	None	Fine	No	Mineral grains	Iron oxide or dirt	Small	-1.797959650955501	1.6019243357411341	-0.09125289835600531
639	17b	17	Lycksele 301	Lycksele	Yes	N2	 	Dark	Black	Quartzite	Arrow point fragment	Point fragment	Sample point on side with iron oxide	Granular	Medium-grained	Bright vitreous	None	None	Fine	No	Mineral grains	Iron oxide or dirt	Small	-1.092199901942843	3.141104345873984	0.44687009174717973
640	18	18	Lycksele 301	Lycksele	No	5Y	 9/2	Light	Opaque	Quartzite	Arrow point	Point	MV	Massive	Fine-grained	Bright vitreous	None	Yes	Conchoidal	Yes	MV	MV	Medium	-4.966711273568398	-2.0280320701560686	0.10513584761675758
641	19	19	Lycksele 301	Lycksele	Yes	N1	 	Dark	Black	Quartzite	Arrow point	Point	MV	Granular	Medium-grained	Bright vitreous	None	Yes	Conchoidal	No	Mineral grains	MV	Medium	-0.09707477861897669	0.26622038919685237	-0.21477063332985033
642	20	20	Lycksele 301	Lycksele	Yes	N2	 	Dark	Black	Quartzite	Point	Point	MV	Granular	Medium-grained	Bright vitreous	None	Yes	Fine	No	Bands of quartz	Iron oxide	Medium	-1.011741896706171	1.294863155632024	-2.0407891569282395
643	21	21	Lycksele 301	Lycksele	Yes	5Y	 8/2	White	White	Quartzite	Arrow point	Point	MV	Granular	Fine-grained	Bright vitreous	None	None	Fine	Yes	MV	MV	Medium	-6.66859956604428	-3.5714363864783447	-0.3775200030522407
644	22	22	Lycksele 401	Lycksele	No	N1	 	Dark	Black	Quartzite	Arrow point	Point	MV	Granular	Medium-grained	Bright vitreous	None	None	Conchoidal	No	Mineral grains	MV	Medium	-3.4505853037282725	-0.6816119137075971	0.7406911412920985
645	23	23	Lycksele 401	Lycksele	No	5Y	 8/3	Light	Opaque	Quartz	Arrow point	Point	MV	Massive	Fine-grained	Waxy	None	None	Fine	Yes	MV	MV	Small	-5.821269788321911	-3.013243403805394	-1.1129527327538873
646	24	24	MV	Sorsele	No	7.5Y	 7/2	Light	Opaque	Quartzite	Point	Point	MV	Massive	Fine-grained	Bright vitreous	None	None	Fine	Yes	MV	MV	Medium	-1.4567990389223877	-0.39780005606559266	1.5894204576691562
647	25	25	Sorsele 282	Sorsele	No	N3	 	Dark	Gray	Quartzite	Point preform	Preform	MV	Granular	Medium-grained	Waxy	None	None	Conchoidal	Yes	MV	MV	Large	-2.0382345432611992	-0.40208594020493094	-0.8586751427133504
648	26	26	MV	Sorsele	No	7.5Y	 7/2	Light	Opaque	Quartzite	Point fragment	Point fragment	MV	Massive	Fine-grained	Bright vitreous	None	None	Conchoidal	Yes	MV	MV	Medium	5.892923899960976	-1.207111517040382	0.11616828518768714
649	27	27	MV	Sorsele	No	MV	 	Translucent	Translucent	Quartzite	Point	Point	MV	Massive	Fine-grained	Bright vitreous	None	None	Smooth	Yes	MV	MV	Medium	-5.663878148523079	-3.232621134695949	0.7284811167024712
650	28	28	Sorsele 552	Sorsele	Yes	N2	 	Dark	Black	Quartzite	Point	Point	MV	Granular	Medium-grained	Bright vitreous	None	None	Smooth	No	Bands of quartz	Iron oxide	Small	-1.6202629848014791	0.7269412391707768	0.387935954060018
651	29	29	Sorsele 733	Sorsele	No	2.5Y	 8/1	Light	Opaque	Quartzite	Point	Point	MV	Massive	Fine-grained	Bright vitreous	None	None	Smooth	Yes	MV	MV	Small	-2.068624390186722	-2.918442964177086	1.1562753072987717
652	30	30	MV	Sorsele	No	N3	 	Dark	Gray	Quartzite	Preform	Preform	MV	Granular	Medium-grained	Waxy	None	None	Conchoidal	No	Bands of dark mineral	MV	Large	-1.115168526175065	-0.2921050880440407	-0.5317189271011439
653	31	31	Sorsele 733	Sorsele	No	N1	 	Dark	Gray	Quartzite	Point	Point	MV	Granular	Fine-grained	Bright vitreous	None	None	Smooth	No	Bands of quartz	MV	Small	-1.5054169785928455	0.47644155841439256	-1.3531035950885635
654	32	32	Sorsele 733	Sorsele	No	N1	 	Dark	Black	Quartzite	Point	Point	MV	Granular	Medium-grained	Waxy	None	None	Conchoidal	No	Mineral grains	MV	Medium	5.303246571013156	-0.8818349525097051	-0.3573137325381278
655	33	33	Sorsele 334	Sorsele	No	5Y	 9/1	Translucent	Translucent	Breccie quartz	Point fragment	Point fragment	MV	Massive	Fine-grained	Waxy	None	None	Fine	No	Dark mineral grains	MV	Small	-4.445290700722896	-2.5839446387936817	-0.6105189950403611
656	34	34	Stensele 83	Stensele	No	N9	 	Light	Opaque	Quartzite	Point	Point	MV	Massive	Fine-grained	Bright vitreous	None	None	Fine	Yes	MV	MV	Medium	-4.621857686442251	-3.0579041529294377	0.5915071152615776
657	35	35	Stensele 481	Stensele	No	N1	 	Dark	Black	Quartzite	Arrow point	Point	MV	Granular	Medium-grained	Waxy	None	None	Conchoidal	Yes	MV	MV	Small	4.987420131841406	-0.5363501314889607	-1.1177644393260397
658	36	36	Stensele 74	Stensele	No	7.5Y	 8/1	Light	Opaque	Quartzite	Arrow point	Point	MV	Massive	Fine-grained	Bright vitreous	None	None	Fine	Yes	MV	MV	Medium	3.0773845049945767	-2.5282677335862433	-0.3718847550941303
659	37	37	Stensele 200	Stensele	No	7.5Y	 8/1	Light	Opaque	Breccie quartz	Arrow point fragment	Point fragment	MV	Massive	Fine-grained	Waxy	None	None	Smooth	No	Dark mineral grains	MV	Medium	-6.097690040951751	-3.229048494023838	-1.128323495418948
660	38	38	Stensele 106	Stensele	Yes	7.5Y	 7/2	Light	Opaque	Breccie quartz	Arrow point fragment	Point fragment	MV	Massive	Fine-grained	Waxy	None	None	Smooth	No	Dark mineral grains	MV	Medium	3.1205253677944924	-2.7122464229524827	0.2377079297855011
661	39	39	MV	Umeå	No	7.5Y	 8/2	Light	Opaque	Breccie quartz	Point	Point	MV	Massive	Fine-grained	Waxy	None	None	Conchoidal	No	Dark mineral grains	Dirt, modern	Medium	-2.4426893911584187	-2.4390194110009022	1.0481691666160229
662	40	40	Umeå 262	Umeå	No	MV	 	Translucent	Translucent	Quartz	Point	Point	Small object	Massive	Massive	Bright vitreous	None	None	Irregular	No	Dark mineral grains	MV	Small	-0.43574665929784273	0.5467725459875158	0.2647162984676888
663	41	41	Umeå 510	Umeå	No	N2	 	Dark	Gray	Quartzite	Point	Point	MV	Massive	Fine-grained	Bright vitreous	None	None	Conchoidal	No	Bands of quartz and mineral grains	MV	Medium	4.215818128093094	-0.8881748109084425	0.6786067564970888
664	42	42	MV	Umeå	Yes	N3	 	Light	Gray	Quartzite	Arrow point	Point	MV	Granular	Medium-grained	Bright vitreous	None	None	Conchoidal	No	Mineral grains	Iron oxide	Medium	7.02412961648216	0.4667207663819502	2.725053756449066
665	42b	42	MV	Umeå	Yes	N3	 	Light	Gray	Quartzite	Arrow point	Point	Sample point on side with iron oxide	Granular	Medium-grained	Bright vitreous	None	None	Conchoidal	No	Mineral grains	Iron oxide	Medium	9.350365209001694	1.0706742904381428	2.376029176333078
666	43	43	MV	Umeå	Yes	7.5Y	 7/3	Light	Opaque	Breccie quartz	Arrow point	Point	MV	Massive	Fine-grained	Bright vitreous	None	None	Fine	No	Dark mineral grains	Dirt	Medium	-2.6796650083511175	-0.2140726338908924	0.5423104290336294
668	44	44	Stensele 75	Stensele	No	N9	 	White	White	Quartzite	Point preform	Preform	MV	Granular	Fine-grained	Bright vitreous	None	None	Irregular	Yes	MV	MV	Large	-4.173582925196083	-3.312717238259315	0.23870208170631257
669	45	45	Stensele 271	Stensele	Yes	7.5Y	 9/1	Light	Opaque	Quartzite	Point preform	Preform	MV	Granular	Fine-grained	Waxy	None	None	Irregular	No	Dark mineral grains	MV	Medium	-4.640367065291696	-1.4411461345774224	0.4991097925807663
670	46	46	MV	Umeå	No	5Y	 8/1	Light	Opaque	Breccie quartz	Point	Point	MV	Granular	Fine-grained	Waxy	Possible bedding	None	Fine	No	Dark mineral inclusion	MV	Large	-1.896729771181346	-1.8398431656606267	-0.25643338671728166
671	46b	46	MV	Umeå	No	5Y	 8/1	Light	Opaque	Breccie quartz	Point	Point	Sample point on dark mineral inclusion	Granular	Fine-grained	Waxy	Possible bedding	None	Fine	No	Dark mineral inclusion	MV	Large	5.52592557814342	-1.868738128944876	0.5709743400406154
672	47	47	MV	Umeå	Yes	5Y	 7/2	Light	Opaque	Breccie quartz	Point preform	Preform	MV	Massive	Fine-grained	Waxy	None	None	Conchoidal	No	Dark mineral grains	MV	Large	-0.8629952970796445	-0.38898148849746034	1.5299538175769334
674	49	49	MV	Umeå	No	5Y	 5/4	Light	Opaque	Breccie quartz	Arrow point	Point	MV	Massive	Fine-grained	Waxy	None	None	Smooth	No	Dark mineral grains	MV	Small	-2.4732514488007196	0.19601056871284522	1.433020274508236
675	50	50	MV	Umeå	No	N9	 	White	White	Quartzite	Point	Point	MV	Massive	Fine-grained	Bright vitreous	None	None	Fine	Yes	MV	Dirt	Small	-3.9841686989468026	-1.567541604772293	0.35758962826485685
676	51	51	MV	Umeå	No	7.5Y	 5/4	Light	Opaque	Breccie quartz	Point	Point	MV	Massive	Fine-grained	Waxy	None	None	Smooth	No	Dark mineral grains	Dirt or iron oxide	Small	-5.43403412098114	-2.154321410950242	-0.6037040431386829
677	52	52	MV	Vännäs	No	N3	 	Light	Gray	Quartzite	Point	Point	MV	Granular	Fine-grained	Bright vitreous	Possible bedding	None	Conchoidal	No	Bands of dark mineral	Glue and dirt	Medium	0.08002767451051443	2.1935783045952078	-0.60971170711196
678	53	53	MV	Vännäs	No	N1	 	Dark	Black	Quartzite	Point preform	Preform	MV	Granular	Fine-grained	Bright vitreous	None	None	Conchoidal	Yes	MV	MV	Large	-3.002859235900246	-1.3054696414723181	-0.41414488582772874
679	54	54	Åsele 115	Åsele	No	N2	 	Dark	Gray	Quartzite	Point	Point	MV	Massive	Fine-grained	Waxy	None	None	Fine	Yes	MV	MV	Medium	-0.870518340484346	0.2038789776960519	-0.8198031477451676
680	55	55	Åsele 115	Åsele	No	N1	 	Dark	Black	Quartzite	Point preform	Preform	MV	Massive	Fine-grained	Waxy	None	None	Smooth	No	Bands of quartz	MV	Medium	-2.1123164859351933	0.6048939598071206	0.17851222772803915
681	56	56	Åsele 115	Åsele	No	N1	 	Dark	Black	Quartzite	Point preform	Preform	MV	Granular	Medium-grained	Bright vitreous	None	None	Conchoidal	Yes	MV	MV	Small	-2.137879208808117	1.239725390468879	-0.44796397613727246
682	57	57	Åsele 115	Åsele	No	MV	 	Translucent	Translucent	Quartzite	Point	Point	MV	Massive	Fine-grained	Bright vitreous	None	None	Fine	Yes	MV	MV	Small	-2.688725418234171	-0.9608576144535063	1.4950083752407448
683	58	58	Åsele 115	Åsele	Yes	7.5Y	 3/4	Light	Dark yellow	Quartzite	Point	Point	MV	Massive	Fine-grained	Bright vitreous	None	None	Conchoidal	Yes	MV	MV	Small	-1.6125731699984547	0.6226812190626331	2.1860421794305633
685	60	60	MV	Vännäs	Yes	N3	 	Dark	Gray	Quartzite	Point preform	Preform	MV	Granular	Medium-grained	Bright vitreous	None	None	Fine	No	Mineral grains	MV	Medium	-1.3131260598706371	1.106429721543689	-0.8858376936893436
686	61	61	MV	Vännäs	Yes	N3	 	Dark	Gray	Quartzite	Point preform	Preform	MV	Granular	Medium-grained	Bright vitreous	None	None	Conchoidal	No	Mineral grains	MV	Large	7.222195589932973	0.14941020604870592	-1.3513840801414363
687	62	62	MV	Vännäs	Yes	N2	 	Dark	Gray	Quartzite	Point preform	Preform	MV	Granular	Medium-grained	Bright vitreous	None	None	Conchoidal	No	Mineral grains	MV	Large	-0.5212422691788833	0.934634169685325	-0.1951449401411435
688	63	63	MV	Vännäs	Yes	N2	 	Dark	Gray	Quartzite	Point preform	Preform	MV	Granular	Medium-grained	Bright vitreous	None	None	Conchoidal	No	Mineral grains	MV	Large	-0.5353387397406021	1.1897121623838993	-1.1378904358349795
689	64	64	MV	Vännäs	Yes	N2	 	Dark	Gray	Quartzite	Point preform	Preform	MV	Granular	Medium-grained	Bright vitreous	None	None	Fine	No	Mineral grains	MV	Large	-1.0190408688165293	1.0860868682934242	-0.7539329259979918
690	65	65	MV	Vännäs	Yes	N2	 	Dark	Gray	Quartzite	Point preform	Preform	MV	Granular	Medium-grained	Bright vitreous	None	None	Conchoidal	No	Mineral grains	Iron oxide	Large	0.19361870714192658	0.19575763482480754	-0.6141032763390879
691	66	66	MV	Vännäs	Yes	N2	 	Dark	Gray	Quartzite	Point preform	Preform	MV	Granular	Medium-grained	Bright vitreous	None	None	Conchoidal	Yes	MV	Dark stain	Large	5.118221815362364	-0.7054919726737271	-0.959112964389504
692	67	67	MV	Vännäs	Yes	N2	 	Dark	Gray	Quartzite	Point preform	Preform	MV	Granular	Medium-grained	Bright vitreous	None	None	Conchoidal	Yes	MV	MV	Large	-0.814994423672447	1.2004917501118195	-0.2754156730918611
693	68	68	MV	Vännäs	Yes	N2	 	Dark	Gray	Quartzite	Point preform	Preform	MV	Granular	Medium-grained	Bright vitreous	None	None	Conchoidal	No	Mineral grains	MV	Large	-0.32656221446205885	0.9578017305762128	-0.860322702484147
694	69	69	MV	Vännäs	Yes	N2	 	Dark	Gray	Quartzite	Point preform	Preform	MV	Granular	Medium-grained	Bright vitreous	None	None	Conchoidal	No	Mineral grains	Iron oxide	Large	-0.5033486821259178	1.1100354930923162	-0.4369334546747674
695	70	70	MV	Vännäs	Yes	N3	 	Light	Gray	Quartzite	Point preform	Preform	MV	Granular	Medium-grained	Bright vitreous	None	None	Conchoidal	Yes	MV	MV	Large	-1.0758972479965851	0.48630474908876165	1.5209254613283456
696	71	71	MV	Vännäs	Yes	N2	 	Light	Gray	Quartzite	Point preform	Preform	MV	Granular	Medium-grained	Bright vitreous	None	None	Conchoidal	No	Mineral grains	Iron oxide	Large	-0.5296817197008119	0.710373613960581	-0.9389920590426071
697	72	72	MV	Vännäs	Yes	N3	 	Dark	Gray	Quartzite	Point preform	Preform	MV	Granular	Medium-grained	Bright vitreous	None	None	Conchoidal	No	Mineral grains	Iron oxide	Large	0.8670342388809444	0.9870540142809576	0.9241437560390504
698	73	73	MV	Vännäs	Yes	N2	 	Dark	Gray	Quartzite	Point preform	Preform	MV	Granular	Medium-grained	Bright vitreous	None	None	Conchoidal	No	Mineral grains	MV	Large	-0.09941720824508914	1.268121585852953	-1.4244111832691742
699	74	74	MV	Vännäs	Yes	N1	 	Dark	Gray	Quartzite	Point preform	Preform	MV	Granular	Medium-grained	Bright vitreous	None	None	Conchoidal	No	Dark mineral inclusion	MV	Large	7.793918312706355	-1.128920999096198	0.8389846373527073
700	75	75	MV	Vännäs	Yes	N1	 	Dark	Gray	Quartzite	Point preform	Preform	MV	Granular	Medium-grained	Bright vitreous	Possible bedding	None	Conchoidal	No	Dark mineral inclusion	MV	Large	-0.9235275778046781	0.8566789672160403	-1.2646497608322143
701	76	76	MV	Vännäs	Yes	N1	 	Dark	Gray	Quartzite	Point preform	Preform	MV	Granular	Medium-grained	Bright vitreous	None	None	Conchoidal	Yes	MV	Iron oxide	Large	0.6891543046275859	1.1150356953222973	-1.0775321526844912
702	77	77	MV	Vännäs	Yes	N1	 	Dark	Gray	Quartzite	Point preform	Preform	MV	Granular	Medium-grained	Bright vitreous	None	None	Conchoidal	Yes	MV	Iron oxide	Large	-1.035024201389995	0.38454173531473446	-0.9504465264689796
703	78a	78	MV	Vännäs	No	N2	 	Dark	Gray streaked with black	Quartzite	Point preform	Preform	MV	Granular	Fine-grained	Bright vitreous	Possible bedding	None	Conchoidal	No	Dark mineral inclusion	MV	Large	0.1739274172223353	0.5103360339592808	1.4918296247496539
704	78b	78	MV	Vännäs	No	N2	 	Dark	Gray streaked with black	Quartzite	Point preform	Preform	Sample point on dark mineral inclusion	Granular	Fine-grained	Bright vitreous	Possible bedding	None	Conchoidal	No	Dark mineral inclusion	MV	Large	5.666415871883298	-1.0233412326125526	1.7686456716612962
705	79	79	MV	Vännäs	Yes	N1	 	Dark	Gray	Quartzite	Point preform	Preform	MV	Granular	Medium-grained	Bright vitreous	None	None	Conchoidal	No	Mineral grains	MV	Medium	-1.719226816267258	0.6567259424189827	-1.0534123506034092
706	80	80	MV	Vännäs	Yes	N1	 	Dark	Gray	Quartzite	Point preform	Preform	MV	Granular	Medium-grained	Bright vitreous	None	None	Conchoidal	No	Dark mineral inclusion	MV	Medium	-0.03180452449545417	-0.1542577804431937	-0.7790915926290164
707	81	81	MV	Vännäs	Yes	N1	 	Dark	Gray	Quartzite	Point preform	Preform	MV	Granular	Medium-grained	Bright vitreous	None	None	Conchoidal	No	Mineral grains	MV	Large	0.31628558932505674	0.2226309531222376	-0.9962729460207181
708	82	82	MV	Vännäs	Yes	N1	 	Dark	Gray	Quartzite	Point preform	Preform	MV	Granular	Medium-grained	Bright vitreous	None	None	Conchoidal	Yes	MV	MV	Medium	-1.1851241388771319	1.1641934720699958	-1.1875958085680631
709	83	83	MV	Vännäs	Yes	N1	 	Dark	Gray	Quartzite	Point preform	Preform	MV	Granular	Medium-grained	Bright vitreous	None	None	Conchoidal	No	Mineral grains	Iron oxide	Large	8.32328230683661	0.042207751599922884	-0.3549613086222258
710	84	84	MV	Vännäs	Yes	N2	 	Dark	Gray	Quartzite	Point preform	Preform	MV	Granular	Medium-grained	Bright vitreous	None	None	Conchoidal	Yes	MV	MV	Large	0.045241884852441086	1.940240526754432	-0.287691464556647
711	85	85	MV	Vännäs	Yes	N2	 	Dark	Gray	Quartzite	Point preform	Preform	MV	Granular	Medium-grained	Bright vitreous	None	None	Conchoidal	No	Dark mineral inclusion	MV	Large	6.516522315949374	-0.9034791224855232	0.1661523442545626
712	86	86	Dorotea 225	Dorotea	No	7.5Y	 3/1	Light	Gray streaked with black	Quartzite	Point preform	Preform	MV	Granular	Fine-grained	Bright vitreous	None	None	Fine	No	Dark mineral inclusion	MV	Medium	-0.9970060174770908	2.0812318608469074	-2.2677466550045993
713	87	87	Dorotea 225	Dorotea	No	N1	 	Dark	Black	Quartzite	Point preform	Preform	MV	Granular	Fine-grained	Waxy	None	None	Conchoidal	Yes	MV	MV	Medium	-2.9412939531506543	1.033654037512991	-0.25452788674981486
714	88	88	Dorotea 225	Dorotea	No	10Y	 3/1	Dark	Dark gray	Quartzite	Point preform	Preform	MV	Granular	Fine-grained	Waxy	None	None	Conchoidal	Yes	MV	MV	Medium	-1.840690453708949	0.05407598844356122	0.4811473571946621
715	89	89	Dorotea 229	Dorotea	No	7.5Y	 2/1	Dark	Gray	Quartzite	Point preform	Preform	MV	Granular	Medium-grained	Waxy	None	None	Conchoidal	No	Bands of quartz	MV	Medium	-1.2833351867765863	1.1534017425359655	-1.4143557608307378
716	90	90	Dorotea 229	Dorotea	No	N1	 	Dark	Black	Quartzite	Point preform	Preform	MV	Granular	Medium-grained	Waxy	None	None	Conchoidal	Yes	MV	Glue/resin	Medium	-2.670826061697718	-1.1529361074788207	-0.0800775084271332
717	91	91	Dorotea 229	Dorotea	No	N2	 	Dark	Gray	Quartzite	Point preform	Preform	MV	Granular	Medium-grained	Waxy	None	None	Conchoidal	Yes	MV	MV	Medium	2.294173263207514	-2.0959184383518954	-1.2689922868475065
718	92	92	Dorotea 304	Dorotea	No	N1	 	Dark	Black	Quartzite	Point preform	Preform	MV	Granular	Medium-grained	Waxy	None	None	Conchoidal	Yes	MV	MV	Large	5.7949740777447944	-1.069784079916823	-2.8058101185524023
719	93	93	Dorotea 304	Dorotea	No	7.5Y	 6/1	Light	Gray	Quartzite	Point preform	Preform	MV	Granular	Medium-grained	Bright vitreous	None	None	Irregular	No	Bands of quartz	MV	Large	4.902322504242518	-1.222684231603053	-0.8507198090694169
720	94	94	Dorotea 304	Dorotea	Yes	5GY	 4/1	Light	Gray	Quartzite	Point preform	Preform	MV	Granular	Medium-grained	Bright vitreous	None	None	Conchoidal	No	Bands of quartz	Red residue	Medium	-2.1113148840078106	0.36611129805787923	-0.4566811066217971
721	95	95	Dorotea 304	Dorotea	No	N1	 	Dark	Black	Quartzite	Point preform	Preform	Measured large fragment	Granular	Medium-grained	Waxy	None	None	Conchoidal	No	Mineral grains	MV	Large	5.071936942810699	-1.7712770632716508	-1.5340291092718013
722	96	96	Dorotea 304	Dorotea	No	N1	 	Dark	Black	Quartzite	Point preform	Preform	MV	Granular	Medium-grained	Waxy	None	None	Conchoidal	Yes	MV	MV	Medium	-1.1571624076942735	-0.11922768504031805	-1.7989219745552112
723	97	97	Dorotea 118	Dorotea	Yes	N5	 	Light	Gray	Quartzite	Point preform	Preform	MV	Massive	Fine-grained	Bright vitreous	None	Possible foliation	Conchoidal	Yes	MV	Iron oxide	Large	0.062034168495259896	1.8900677118898035	-1.2254197340285562
724	98	98	Dorotea 118	Dorotea	Yes	N2	 	Dark	Black	Quartzite	Spear point	Point	MV	Granular	Medium-grained	Waxy	None	None	Conchoidal	Yes	MV	MV	Large	-1.6031400072266229	1.641688263620326	-0.07023139261213701
725	99	99	MV	Dorotea	No	N1	 	Dark	Black	Quartzite	Point	Point	MV	Granular	Fine-grained	Waxy	None	None	Fine	Yes	MV	MV	Medium	8.873457123330633	-0.10490483266760996	2.0829188747321252
726	100	100	Dorotea 17	Dorotea	No	N2	 	Dark	Gray	Quartzite	Point	Point	MV	Massive	Fine-grained	Bright vitreous	None	None	Smooth	No	Dark mineral inclusion	MV	Medium	-1.6949978939591073	0.24384784339086202	1.8592642515006794
727	101	101	Dorotea 17	Dorotea	Yes	N1	 	Dark	Black	Quartzite	Point preform	Preform	MV	Granular	Medium-grained	Waxy	None	None	Conchoidal	Yes	MV	MV	Medium	5.152760930337898	-1.392064012157643	-1.1517832962262535
728	102	102	Dorotea 214	Dorotea	Yes	N1	 	Dark	Black	Quartzite	Arrow point	Point	MV	Granular	Fine-grained	Bright vitreous	None	None	Conchoidal	Yes	MV	Iron oxide	Medium	-1.5942579912984145	0.1587447120526724	0.8808052842555798
729	103	103	Dorotea 214	Dorotea	No	N1	 	Dark	Black	Quartzite	Point preform	Preform	MV	Granular	Medium-grained	Waxy	None	None	Conchoidal	Yes	MV	MV	Medium	5.378076779511728	-0.8013061153722335	-3.06849415205943
730	104	104	Dorotea 214	Dorotea	No	N1	 	Dark	Black	Quartzite	Point preform	Preform	MV	Granular	Fine-grained	Bright vitreous	None	None	Smooth	No	Dark mineral inclusion	MV	Medium	5.195572320522353	-0.8808093311512043	-0.7606014751789861
731	105	105	Dorotea 214	Dorotea	Yes	5Y	 9/1	Light	Opaque	Quartzite	Point	Point	MV	Massive	Fine-grained	Waxy	None	None	Fine	Yes	MV	MV	Small	-2.811509797110417	-0.9455899105572467	0.4629243888793112
732	106	106	Dorotea 214	Dorotea	No	N2	 	Dark	Black	Quartzite	Point preform	Preform	MV	Granular	Medium-grained	Waxy	None	None	Conchoidal	No	Quartz	MV	Large	5.50945410322273	-1.1238305806017008	-0.5331269179781065
733	107	107	Dorotea 214	Dorotea	No	N2	 	Dark	Black	Quartzite	Point preform	Preform	MV	Granular	Medium-grained	Waxy	None	None	Conchoidal	No	Bands of quartz	MV	Large	-2.4280388970501616	-0.0926315711082108	0.3143146769199982
734	108	108	Dorotea 214	Dorotea	No	N2	 	Dark	Black	Quartzite	Point preform	Preform	MV	Granular	Medium-grained	Waxy	None	None	Conchoidal	Yes	MV	MV	Large	-2.144527816312588	1.0343707634861696	-0.391932837067063
735	109	109	Dorotea 302	Dorotea	No	7.5Y	 2/1	Dark	Gray	Quartzite	Point preform	Preform	MV	Granular	Medium-grained	Bright vitreous	None	None	Conchoidal	Yes	MV	MV	Medium	-1.2411257919908019	0.5494719667079537	-0.2791116044449998
736	110	110	Dorotea 214	Dorotea	Yes	N1	 	Dark	Black	Quartzite	Point preform	Preform	MV	Granular	Medium-grained	Waxy	None	None	Conchoidal	No	Bands of quartz	MV	Large	6.625001599577396	-1.2214107278399247	-0.8458142638414204
737	111	111	Dorotea 214	Dorotea	No	N1	 	Dark	Black	Quartzite	Point preform	Preform	MV	Granular	Medium-grained	Bright vitreous	None	None	Fine	No	Bands of quartz	MV	Large	-1.7385861458817824	0.6137370854295512	-1.6675869725149428
738	112	112	Dorotea 302	Dorotea	No	7.5Y	 2/1	Dark	Gray	Quartzite	Point preform	Preform	MV	Granular	Medium-grained	Bright vitreous	None	None	Conchoidal	Yes	MV	MV	Small	-2.2498900145497065	-0.5858530257787353	1.6207162851104266
739	113	113	Dorotea 302	Dorotea	No	N1	 	Dark	Black	Quartzite	Point	Point	MV	Granular	Medium-grained	Bright vitreous	None	None	Conchoidal	Yes	MV	MV	Medium	-2.3323789814929703	-0.6913208976069424	1.3092912250856577
740	114	114	Dorotea 226	Dorotea	No	N8	 	Light	Light gray	Quartzite	Point	Point	MV	Granular	Medium-grained	Dull	None	None	Fine	Yes	MV	MV	Medium	-3.2481013622280948	-2.0678159734237704	2.3954925840918406
741	115	115	Dorotea 226	Dorotea	No	N8	 	Light	Light gray	Quartzite	Point	Point	MV	Granular	Fine-grained	Dull	None	None	Fine	Yes	MV	MV	Small	-2.690453433093219	-1.1865096293172528	1.869205860968323
742	116	116	Dorotea 226	Dorotea	No	N2	 	Dark	Dark gray	Quartzite	Point preform	Preform	MV	Granular	Medium-grained	Waxy	None	None	Fine	No	Bands of quartz	MV	Medium	5.821020665681215	-1.675310326855754	-0.8707592101614535
743	117	117	MV	Dorotea	Yes	N2	 	Dark	Dark gray	Quartzite	Point	Point	MV	Granular	Fine-grained	Bright vitreous	None	None	Smooth	No	Mineral grains	Iron oxide	Medium	-1.183330550129042	1.8089412738727288	-0.7825623355787323
744	118	118	Dorotea 215	Dorotea	Yes	N5	 	Light	Gray	Quartzite	Point preform	Preform	MV	Granular	Medium-grained	Bright vitreous	None	None	Conchoidal	No	Dark mineral inclusion	MV	Large	-2.706615279392388	-0.2927324427667331	-1.226014227937372
745	119	119	MV	Dorotea	No	N5	 	Light	Gray	Quartzite	Spear point	Point	MV	Granular	Medium-grained	Bright vitreous	None	None	Conchoidal	No	Bands of quartz	MV	Medium	-2.189418546310686	-0.1867943562832656	-0.9335959094796107
746	120	120	MV	Dorotea	Yes	N1	 	Dark	Black	Quartzite	Spear point fragment	Point fragment	MV	Granular	Fine-grained	Waxy	None	None	Conchoidal	No	Mineral grains	Dirt	Medium	-0.6184430533436469	1.5576688501731069	-0.40840631509387254
747	121	121	MV	Dorotea	No	N1	 	Dark	Black	Quartzite	Preform	Preform	MV	Granular	Fine-grained	Waxy	None	None	Fine	No	Quartz grains	MV	Medium	-2.3162900022984934	0.19426347587712164	-2.355959778373548
748	122	122	Dorotea 143	Dorotea	Yes	2.5PB	 5/1	Light	Gray	Quartzite	Point preform	Preform	MV	Granular	Medium-grained	Bright vitreous	None	None	Conchoidal	No	Dark mineral inclusion	Iron oxide	Large	-1.6937096357674348	0.5431759278863882	0.13319494292799738
749	123	123	Dorotea 143	Dorotea	No	7.5Y	 3/1	Dark	Gray	Quartzite	Point preform	Preform	MV	Granular	Medium-grained	Bright vitreous	None	None	Conchoidal	Yes	MV	MV	Large	-2.0406312364504924	0.9948330988787742	-0.17971569522169772
750	124	124	Dorotea 143	Dorotea	No	N3	 	Dark	Dark gray	Quartzite	Point preform	Preform	MV	Granular	Medium-grained	Bright vitreous	None	None	Conchoidal	No	Dark mineral inclusion	MV	Medium	-1.9444813552144766	0.5260837504275789	-0.2966266679430098
751	125	125	Dorotea 143	Dorotea	No	2.5Y	 9/1	Light	Opaque	Quartz	Point	Point	MV	Massive	Fine-grained	Waxy	None	None	Smooth	No	Dark mineral grains	MV	Medium	1.0667323289352	-2.334442627733857	-3.3641599711638426
752	126	126	Dorotea 84	Dorotea	No	N1	 	Dark	Black	Quartzite	Point preform	Preform	MV	Granular	Medium-grained	Waxy	None	None	Conchoidal	Yes	MV	MV	Large	-2.7424068980074123	-0.43559872937931626	-0.20917481000289073
753	127	127	MV	Dorotea	No	N2	 	Dark	Gray	Quartzite	Point	Point	MV	Massive	Fine-grained	Bright vitreous	None	None	Smooth	No	Dark mineral inclusion	Dirt?	Small	-0.8084117957466654	1.7120636729210743	1.5720403444345463
754	128	128	MV	Dorotea	No	N1	 	Dark	Black	Quartzite	Point	Point	MV	Granular	Fine-grained	Waxy	None	None	Fine	No	Bands of quartz	MV	Small	6.8664016578486535	-0.6948448691412163	-0.5529536597440209
755	129	129	MV	Dorotea	Yes	2.5Y	 6/3	Light	Dark yellow	Quartzite	Point	Point	MV	Massive	Fine-grained	Bright vitreous	None	None	Smooth	Yes	MV	MV	Small	-1.9597776495743209	-0.010322709993885766	-0.6429533948001331
756	130	130	Dorotea 84	Dorotea	Yes	10Y	 5/2	Light	Light gray	Quartzite	Point	Point	MV	Granular	Fine-grained	Bright vitreous	None	None	Smooth	No	Dark mineral grains	MV	Small	-0.7189991434445963	0.6160679526485526	-1.8214756671702585
757	131	131	Dorotea 84	Dorotea	Yes	5Y	 6/2	Light	Opaque	Quartzite	Point	Point	MV	Granular	Fine-grained	Waxy	None	Possible foliation	Smooth	No	MV	MV	Medium	-4.708481167875869	-2.1222252568874436	-0.37021990221865886
758	132	132	Dorotea 84	Dorotea	Yes	N1	 	Dark	Black	Quartzite	Point	Point	MV	Granular	Fine-grained	Bright vitreous	None	None	Smooth	Yes	MV	MV	Small	-1.6336203196008456	1.1422203618742894	-0.20319850755156926
759	133	133	Dorotea 84	Dorotea	Yes	5Y	 2/1	Light	Gray	Quartzite	Point preform	Preform	MV	Granular	Medium-grained	Bright vitreous	None	None	Conchoidal	Yes	MV	Dirt	Large	7.560929355286311	-1.0168879527223678	0.5402236394463853
760	134	134	Dorotea 84	Dorotea	No	5Y	 7/1	Light	Opaque	Quartzite	Point	Point	MV	Massive	Fine-grained	Bright vitreous	None	None	Conchoidal	No	Dark mineral inclusion	MV	Small	-2.7224954375138894	1.0686567275350176	-0.9984846028962004
761	135	135	Dorotea 84	Dorotea	No	5Y	 7/1	Light	Opaque	Quartzite	Spear point	Point	MV	Massive	Fine-grained	Bright vitreous	None	None	Smooth	Yes	MV	MV	Medium	-2.5728307249499123	-1.6630451062891036	1.0497955967916783
762	136	136	Dorotea 84	Dorotea	No	5Y	 8/1	White	White	Quartzite	Arrow point	Point	MV	Granular	Fine-grained	Dull	None	None	Smooth	No	Bands of quartz	MV	Small	-0.20726530807303595	2.429366826689047	0.8151190801163527
763	137	137	Dorotea 84	Dorotea	No	2.5Y	 4/3	Light	Dark yellow	Quartzite	Point	Point	MV	Granular	Fine-grained	Waxy	None	None	Smooth	Yes	MV	MV	Small	6.0222560156263505	-1.313337861924277	0.6769323763250745
764	138	138	Dorotea 84	Dorotea	No	N4	 	Dark	Gray	Quartzite	Point preform	Preform	MV	Granular	Medium-grained	Waxy	None	None	Conchoidal	No	Dark mineral inclusion	MV	Medium	-0.7506322824720041	1.2030769124949319	-2.444274543842604
765	139	139	MV	Dorotea	No	N3	 	Dark	Black	Quartzite	Point preform	Preform	MV	Granular	Medium-grained	Waxy	Possible bedding	None	Conchoidal	No	Dark mineral inclusion	MV	Large	5.0109410513025345	-0.4620949947665395	-0.9086279964820047
766	140	140	Dorotea 229	Dorotea	No	N2	 	Dark	Black	Quartzite	Point preform	Preform	MV	Granular	Medium-grained	Waxy	None	None	Fine	No	Bands of quartz	MV	Medium	-3.261113061860779	-2.23492316513053	-0.4805899278086407
767	141	141	Dorotea 229	Dorotea	No	N2	 	Dark	Black	Quartzite	Point preform	Preform	MV	Granular	Medium-grained	Waxy	None	None	Conchoidal	No	Dark mineral inclusion	MV	Medium	-1.5230386003113523	-0.5572175501962231	0.05167091160031002
768	142	142	Dorotea 229	Dorotea	No	N1	 	Dark	Black	Quartzite	Point preform	Preform	MV	Granular	Fine-grained	Waxy	Possible bedding	None	Conchoidal	No	Dark mineral inclusion	MV	Medium	-1.6677236238594955	0.46579801890200173	-1.6015967782042166
769	143a	143	Dorotea 507	Dorotea	Yes	7.5Y	 8/2	White	White	Quartzite	Spear point	Point	Sample point on tip fragment	Massive	Fine-grained	Bright vitreous	None	None	Smooth	No	Iron	Iron oxide and red (modern?) discoloration	Large	5.670630636720457	-0.15996386305365526	0.9168625094985642
770	143b	143	Dorotea 507	Dorotea	Yes	7.5Y	 8/2	White	White	Quartzite	Spear point	Point	Sample point on darker discolored part of base fragment	Massive	Fine-grained	Bright vitreous	None	None	Smooth	No	Iron	Iron oxide and red (modern?) discoloration	Large	-0.4730125785940465	0.8530676277516731	0.36386961698848386
771	144	144	Dorotea 229	Dorotea	No	N1	 	Dark	Gray	Quartzite	Point preform	Preform	MV	Granular	Medium-grained	Waxy	None	None	Conchoidal	Yes	MV	MV	Small	-2.717091266099951	-1.2491514876339185	-2.0700432453484923
772	145	145	Dorotea 628	Dorotea	No	2.5Y	 4/3	Dark	Brown streaked with black	Quartzite	Point	Point	MV	Granular	Fine-grained	Bright vitreous	None	None	Smooth	No	Dark mineral inclusion	MV	Large	5.863611546470072	-0.25726769261940446	-0.6504072178939827
773	146	146	Dorotea 229	Dorotea	No	5Y	 9/1	White	White	Quartzite	Point preform	Preform	MV	Granular	Medium-grained	Dull	None	None	Conchoidal	No	Quartz	MV	Medium	4.688910204157821	-1.0656482322045686	-1.073384931842126
774	147	147	Dorotea 229	Dorotea	No	N6	 	Light	Gray	Quartzite	Point preform	Preform	MV	Granular	Medium-grained	Bright vitreous	None	None	Conchoidal	No	Dark mineral inclusion	MV	Large	-2.5811966233243444	0.8588530151989462	-0.23299637655309113
775	148	148	Dorotea 304	Dorotea	No	2.5Y	 3/2	Light	Brown	Quartzite	Point	Point	MV	Granular	Fine-grained	Waxy	None	None	Smooth	Yes	MV	MV	Small	0.008405336944167329	1.6198907126784554	-2.9367400430529473
776	149	149	Dorotea 304	Dorotea	No	2.5Y	 6/1	Light	Gray	Quartzite	Point preform	Preform	MV	Granular	Fine-grained	Waxy	None	None	Conchoidal	No	Dark mineral inclusion	MV	Small	7.167661256971001	-0.13567211685061709	-1.0095472549998425
777	150	150	Dorotea 304	Dorotea	No	N3	 	Dark	Gray	Quartzite	Point preform	Preform	MV	Granular	Medium-grained	Waxy	None	None	Conchoidal	Yes	MV	MV	Medium	4.741603448194383	-1.4108928785666335	-1.6494551320302837
778	151	151	Dorotea 304	Dorotea	No	N3	 	Dark	Gray	Quartzite	Spear point	Point	MV	Granular	Medium-grained	Waxy	None	None	Conchoidal	No	Bands of quartz	MV	Medium	5.065615707760591	-1.4091644857978154	-1.0734161645170057
779	152	152	MV	Åsele	Yes	N3	 	Dark	White streaked with black	Quartzite	Point preform	Preform	MV	Granular	Fine-grained	Dull	None	None	Conchoidal	No	Dark mineral inclusion	Iron oxide	Large	-1.0118146317494785	0.6269895176978129	2.0074349380070147
780	153	153	Åsele 182	Åsele	No	5Y	 4/3	Dark	Brown	Quartzite	Point preform	Preform	MV	Granular	Medium-grained	Waxy	None	None	Conchoidal	No	Dark mineral inclusion	MV	Large	7.206311116252658	-0.6386235109397854	0.09335828555471537
781	154	154	MV	Åsele	Yes	5Y	 9/1	White	White	Quartzite	Point preform	Preform	MV	Granular	Fine-grained	Dull	None	None	Smooth	No	Dark mineral inclusion	MV	Large	-0.8009787400231204	0.7413383623734966	-0.1881289614326436
782	155	155	MV	Åsele	No	2.5Y	 8/1	Light	Opaque	Quartzite	Point preform	Preform	MV	Granular	Fine-grained	Bright vitreous	None	None	Conchoidal	Yes	MV	MV	Medium	-3.049198655689088	-0.878640683469073	0.963164814966712
783	156	156	MV	Åsele	Yes	5Y	 6/1	Light	Gray	Quartzite	Point preform	Preform	MV	Granular	Fine-grained	Dull	None	None	Smooth	No	Dark mineral inclusion	(Modern) white color and resin	Medium	7.412484240658141	-0.15502944419231846	1.7807853704322316
784	157	157	MV	Åsele	No	2.5Y	 3/2	Dark	Brown	Quartzite	Point preform	Preform	MV	Granular	Medium-grained	Waxy	None	None	Conchoidal	No	Dark mineral inclusion	MV	Medium	5.979714444528826	-0.2830463385539894	-0.8173374891868974
785	158	158	MV	Åsele	No	N1	 	Dark	Black	Quartzite	Point	Point	MV	Granular	Fine-grained	Waxy	None	None	Conchoidal	Yes	MV	MV	Medium	-0.439374517980516	0.22793234571463472	-0.5572886035266255
786	159	159	MV	Åsele	No	N1	 	Dark	Black	Quartzite	Point preform	Preform	MV	Granular	Fine-grained	Waxy	None	None	Conchoidal	Yes	MV	MV	Medium	7.520304598091866	-0.16214222194310438	-0.7401918232376244
787	160	160	MV	Åsele	Yes	N1	 	Dark	Black	Quartzite	Point preform	Preform	MV	Granular	Fine-grained	Waxy	None	None	Conchoidal	Yes	MV	Dirt	Medium	6.709461286847221	-0.3790355282947645	-1.087402147842953
788	161	161	MV	Åsele	No	N1	 	Dark	Black	Quartzite	Point preform	Preform	MV	Granular	Fine-grained	Waxy	None	None	Conchoidal	Yes	MV	MV	Medium	7.798141814806219	-0.17230843011468627	0.8730891035801606
789	162	162	MV	Åsele	No	N2	 	Dark	Gray	Quartzite	Point preform	Preform	MV	Granular	Medium-grained	Bright vitreous	None	None	Smooth	No	Mineral grains	MV	Medium	-0.37760639499817594	1.9722290681799584	-0.6424356670694598
790	163	163	MV	Åsele	Yes	N2	 	Dark	Gray	Quartzite	Point preform	Preform	MV	Granular	Medium-grained	Bright vitreous	None	None	Conchoidal	Yes	MV	MV	Medium	1.8680511325664928	1.486720951762173	-2.495453654428763
791	164	164	MV	Åsele	No	N1	 	Dark	Black	Quartzite	Point preform	Preform	MV	Granular	Medium-grained	Waxy	None	None	Smooth	Yes	MV	MV	Small	6.833971008349673	-0.5993408443639499	0.6287553209732502
792	165	165	MV	Åsele	No	N1	 	Dark	Black	Quartzite	Point	Point	MV	Granular	Fine-grained	Dull	None	None	Conchoidal	Yes	MV	MV	Small	-0.1597508877838719	1.6137516259794162	0.39606628707299635
793	166	166	MV	Åsele	Yes	N4	 	Dark	Gray	Quartzite	Point preform	Preform	MV	Granular	Fine-grained	Waxy	None	None	Weathered	No	Dark mineral inclusion	MV	Medium	-1.1536580023012022	1.8764840829040936	1.6825544250749545
794	167	167	Åsele 393	Åsele	No	N1	 	Dark	Black	Quartzite	Point preform	Preform	MV	Granular	Fine-grained	Dull	None	None	Smooth	Yes	MV	MV	Medium	0.6695101898365388	1.357233521313806	1.2820835852876364
796	168	168	Åsele 129	Åsele	No	N1	 	Dark	Black	Quartzite	Point preform	Preform	MV	Granular	Medium-grained	Waxy	None	None	Fine	Yes	MV	MV	Medium	-1.633618721550447	0.8571114903794086	-0.21064498017974115
797	169	169	Åsele 129	Åsele	Yes	N1	 	Dark	Gray	Quartzite	Point preform	Preform	MV	Granular	Medium-grained	Waxy	None	None	Conchoidal	Yes	MV	MV	Small	-2.069446741153446	1.3377584840809376	-1.297227904018259
798	170	170	Åsele 129	Åsele	Yes	N1	 	Dark	Black	Quartzite	Point preform	Preform	MV	Granular	Fine-grained	Bright vitreous	None	None	Smooth	Yes	MV	Iron oxide	Small	-1.8410541646774172	1.4206598000397617	-0.3060230853700536
799	171	171	Åsele 129	Åsele	No	N4	 	Light	Gray	Quartzite	Point preform	Preform	MV	Granular	Medium-grained	Bright vitreous	None	None	Fine	Yes	MV	MV	Small	-2.8329701470507995	-1.2548300261257548	0.45176359676069466
800	172	172	Åsele 129	Åsele	Yes	N1	 	Dark	Black	Quartzite	Arrow point	Point	MV	Granular	Fine-grained	Waxy	None	None	Fine	No	Bands of quartz	Iron oxide	Medium	-2.300830694955076	-0.09332401487847998	0.4154255766899783
801	173	173	Åsele 129	Åsele	Yes	2.5Y	 3/1	Light	Opaque	Breccie quartz	Arrow point	Point	MV	Granular	Fine-grained	Bright vitreous	None	None	Fine	No	Dark mineral inclusion	MV	Small	-2.3091014272004795	0.01365354411868163	1.26524531275584
802	174	174	Åsele 129	Åsele	Yes	N1	 	Dark	Gray	Quartzite	Arrow point	Point	MV	Granular	Fine-grained	Dull	None	None	Conchoidal	Yes	MV	MV	Small	-0.8772152465229776	2.6156618083197682	0.9483576273942933
803	175	175	Åsele 129	Åsele	No	N4	 	Dark	Gray	Quartzite	Point preform	Preform	MV	Granular	Fine-grained	Waxy	None	None	Conchoidal	No	Dark mineral inclusion	MV	Medium	-2.1366080057785277	-0.8764290552543016	1.4627725960653164
804	176	176	Åsele 129	Åsele	Yes	N1	 	Dark	Black	Quartzite	Arrow point	Point	MV	Granular	Fine-grained	Bright vitreous	None	None	Fine	No	Banded quartz	MV	Medium	-2.3988438835179626	0.3959001434597635	-0.7563015575244592
805	177	177	MV	Åsele	Yes	N1	 	Dark	Black	Quartzite	Preform	Preform	MV	Granular	Medium-grained	Waxy	None	None	Conchoidal	No	Mineral grains	Iron oxide	Medium	-1.6455993768315946	-0.09631269882146254	1.6735849642283982
806	178	178	Åsele 91	Åsele	Yes	7.5Y	 7/1	White	White	Quartzite	Bifacial point	Point	MV	Granular	Fine-grained	Bright vitreous	None	None	Smooth	No	Dark mineral inclusion	MV	Small	6.198540526660343	-0.7768901997908576	0.6179506006295203
807	179	179	Åsele 91	Åsele	No	5Y	 7/2	Light	Opaque	Breccie quartz	Bifacial point	Point	MV	Massive	Fine-grained	Bright vitreous	None	None	Smooth	No	Dark mineral grains	MV	Small	-2.64382136434618	-0.9004371634281964	0.3290541823972229
808	180	180	Åsele 91	Åsele	No	5Y	 7/2	Light	Opaque	Quartz	Arrow point	Point	MV	Granular	Fine-grained	Bright vitreous	None	None	Smooth	No	Dark mineral grains	MV	Small	5.649707528693494	-0.5011137226387921	0.034604529993997483
809	181	181	Åsele 92	Åsele	Yes	5Y	 7/2	Light	Opaque	Quartz	Point preform	Preform	MV	Granular	Fine-grained	Waxy	None	None	Conchoidal	Yes	MV	MV	Medium	-2.310028677242719	-0.3449954241911084	-0.6439160555408211
810	182	182	Åsele 99	Åsele	No	N1	 	Dark	Black	Quartzite	Point preform	Preform	MV	Granular	Fine-grained	Waxy	None	None	Conchoidal	Yes	MV	MV	Medium	4.296965140275869	-0.8120961551028636	-2.35709881127241
811	183	183	MV	Åsele	No	N1	 	Dark	Black	Quartzite	Point preform	Preform	MV	Granular	Medium-grained	Bright vitreous	None	None	Smooth	No	Mineral grains	MV	Large	-1.390515308885911	1.0121960511350545	-1.042730625567275
812	184	184	Åsele 101	Åsele	No	5Y	 9/1	White	White	Quartzite	Point	Point	MV	Granular	Medium-grained	Dull	None	None	Smooth	No	Quartz and matrix	MV	Medium	-2.3838286315279795	-1.206487444033789	2.032661815463226
813	185	185	Åsele 107	Åsele	No	N1	 	Dark	Black	Quartzite	Preform	Preform	MV	Granular	Fine-grained	Bright vitreous	Bedding	None	Smooth	No	Banded	MV	Medium	0.926917661899376	3.299991200970261	-2.23271928835491
814	186	186	Åsele 107	Åsele	Yes	N2	 	Dark	Gray	Quartzite	Point	Point	MV	Granular	Medium-grained	Bright vitreous	None	None	Fine	No	Dark mineral inclusion	MV	Medium	-1.1451098015114645	1.9245771493594375	-0.35491783567460117
815	187	187	Åsele 107	Åsele	No	N1	 	Dark	Gray	Quartzite	Point	Point	MV	Granular	Medium-grained	Bright vitreous	None	None	Conchoidal	No	Mineral grains	MV	Medium	-2.68674377092036	2.384404958539965	-1.25077625641542
817	188	188	Åsele 117	Åsele	No	N1	 	Dark	Gray	Quartzite	Point	Point	MV	Granular	Medium-grained	Waxy	None	None	Smooth	No	Mineral grains	MV	Small	4.863456707635328	-0.9949101655670987	-1.5200830497489595
818	189	189	Åsele 117	Åsele	Yes	5Y	 6/1	Light	Light gray	Quartzite	Point	Point	MV	Granular	Fine-grained	Dull	None	None	Fine	No	Mineral grains	MV	Small	-1.0386080906584823	1.3778976642755796	1.3281795869299642
819	190	190	Åsele 119	Åsele	No	N1	 	Dark	Black	Quartzite	Point fragment	Point fragment	MV	Granular	Medium-grained	Waxy	None	None	Conchoidal	No	Mineral grains	MV	Medium	-1.2868423910030622	1.3033861410427603	-0.12761141624694308
820	191a	191	Åsele 117	Åsele	Yes	N4	 	Dark	Gray	Quartzite	Point preform	Preform	MV	Granular	Fine-grained	Bright vitreous	None	None	Conchoidal	No	Dark mineral inclusion and iron	Iron oxide	Medium	-0.8495615105218319	1.0785944385002455	0.36500578267004835
821	191b	191	Åsele 117	Åsele	Yes	N4	 	Dark	Gray	Quartzite	Point preform	Preform	Sample point on brown discoloration	Granular	Fine-grained	Bright vitreous	None	None	Conchoidal	No	Dark mineral inclusion and iron	Iron oxide	Medium	0.876612170664919	3.4102950945796433	1.0373275167473757
822	192	192	Åsele 236	Åsele	No	N1	 	Dark	Black	Quartzite	Point preform	Preform	MV	Granular	Medium-grained	Waxy	None	None	Conchoidal	No	Mineral grains	MV	Medium	-0.35967128372582524	1.9231727352528136	-1.7638159091546313
823	223	223	Vilhelmina 948	Vilhelmina	No	7.5Y	 4/1	Light	Gray	Quartzite	Point preform	Preform	MV	Granular	Medium-grained	Bright vitreous	None	None	Conchoidal	Yes	MV	MV	Medium	-2.2106466503321633	-0.20755611145926992	1.8576194269498423
824	224	224	Vilhelmina 931	Vilhelmina	Yes	N1	 	Dark	Black	Quartzite	Point preform	Preform	MV	Granular	Medium-grained	Bright vitreous	None	None	Conchoidal	Yes	MV	MV	Large	-1.8373794435186452	1.386611059549498	0.16302376333091353
825	226	226	Vilhelmina 931	Vilhelmina	No	N1	 	Dark	Black	Quartzite	Point	Point	Står sample 228 i XRF sample field	Granular	Fine-grained	Bright vitreous	None	None	Conchoidal	Yes	MV	MV	Medium	0.16980909809722677	1.0743744751398405	-0.8687101266714662
826	228	228	Vilhelmina 931	Vilhelmina	Yes	7.5Y	 3/1	Dark	Gray	Quartzite	Point	Point	Står sample 226 i XRF sample field	Granular	Medium-grained	Bright vitreous	None	None	Fine	No	Dark mineral inclusion	MV	Medium	6.872114141473169	-0.04747287477902387	0.14129053644428877
827	225	225	MV	Vilhelmina	No	N1	 	Dark	Black	Quartzite	Point preform	Preform	MV	Granular	Medium-grained	Bright vitreous	None	None	Conchoidal	No	Mineral grains	MV	Large	0.1587246771988418	0.9077466021367001	-1.2017219581850602
828	229	229	Vilhelmina 1254	Vilhelmina	Yes	N1	 	Dark	Black	Quartzite	Point preform	Preform	MV	Granular	Fine-grained	Waxy	None	None	Conchoidal	Yes	MV	MV	Medium	-3.199193288857459	-0.3936370533618159	0.6039740790995849
829	237	237	Vilhelmina 1254	Vilhelmina	Yes	N1	 	Dark	Black	Quartzite	Arrow point preform	Preform	MV	Granular	Fine-grained	Bright vitreous	None	None	Weathered	No	MV	MV	Medium	-2.7890500304785313	0.6673312990172119	2.2085944874661747
830	236	236	Vilhelmina 1254	Vilhelmina	No	2.5Y	 7/1	White	White	Quartzite	Arrow point	Point	MV	Granular	Fine-grained	Dull	None	None	Fine	No	MV	MV	Small	-0.33760002135155687	1.4019262931693117	0.829069257867323
831	238	238	Vilhelmina 1254	Vilhelmina	No	N1	 	Dark	Black	Quartzite	Arrow point	Point	MV	Granular	Fine-grained	Waxy	None	None	Fine	Yes	MV	MV	Medium	-1.05060217002558	1.638279866721331	-1.7524034519507785
832	239	239	Vilhelmina 952	Vilhelmina	Yes	N1	 	Dark	Black	Quartzite	Point preform	Preform	MV	Granular	Medium-grained	Bright vitreous	None	None	Conchoidal	Yes	MV	MV	Large	-2.2622425703238456	1.1414972318720646	-1.8789065273023782
833	227	227	Vilhelmina 539	Vilhelmina	No	7.5Y	 3/1	Light	Gray	Quartzite	Arrow point	Point	MV	Granular	Medium-grained	Bright vitreous	None	None	Fine	No	Dark mineral inclusion	MV	Medium	-2.450855769444254	0.4438058484143368	-1.2673878263266043
837	230	230	Vilhelmina 949	Vilhelmina	No	5Y	 9/1	Light	Opaque	Breccie quartz	Arrow point	Point	MV	Massive	Fine-grained	Waxy	None	Possible foliation	Fine	No	Dark mineral grains	MV	Medium	-4.520549707941646	-1.5194162574099728	-0.4528467734468131
838	232	232	Vilhelmina 1254	Vilhelmina	Yes	N3	 	Dark	Gray streaked with white	Quartzite	Arrow point	Point	MV	Granular	Medium-grained	Bright vitreous	None	None	Fine	No	MV	Possibly weathered	Small	-0.4720966120745543	1.6807757546724735	1.0804569629988692
839	231	231	Vilhelmina 1254	Vilhelmina	No	N3	 	Dark	Gray	Quartzite	Arrow point	Point	MV	Granular	Fine-grained	Waxy	None	None	Fine	No	Mineral inclusion	MV	Small	4.518769906994537	-0.9494606333259608	-0.5265984972555019
840	233	233	Vilhelmina 1254	Vilhelmina	Yes	10B	 6/1	Light	Light gray	Quartzite	Arrow point	Point	MV	Massive	Fine-grained	Dull	None	Possible foliation	Fine	No	MV	MV	Small	4.932551671956013	-0.7743541784253672	0.7323886007509237
841	234	234	Vilhelmina 1254	Vilhelmina	No	N1	 	Dark	Black	Quartzite	Arrow point	Point	MV	Granular	Medium-grained	Waxy	None	None	Fine	Yes	MV	MV	Medium	3.634759577863346	-0.91694890993992	-2.4818121529364507
842	235	235	Vilhelmina 240	Vilhelmina	Yes	N1	 	Dark	Black	Quartzite	Point	Point	MV	Granular	Medium-grained	Waxy	None	None	Fine	Yes	MV	MV	Large	-1.0445338567190827	1.1605080237869638	6.861377033313371E-4
844	218	218	Vilhelmina 948	Vilhelmina	Yes	7.5Y	 6/1	Light	Gray	Quartzite	Point	Point	MV	Granular	Medium-grained	Dull	None	None	Fine	Yes	MV	Iron oxide	Medium	6.238092435272668	0.16438674241100057	1.2693299683751142
845	219	219	MV	Vilhelmina	Yes	N3	 	Dark	Gray	Quartzite	Arrow point preform	Preform	MV	Granular	Medium-grained	Bright vitreous	None	None	Conchoidal	No	Dark mineral inclusion	Iron oxide	Medium	-1.2241329206035478	0.0432619304119962	1.7072398251354306
846	220	220	MV	Vilhelmina	Yes	N1	 	Dark	Black	Quartzite	Point preform	Preform	MV	Granular	Medium-grained	Bright vitreous	None	None	Conchoidal	Yes	MV	Iron oxide	Large	-2.438284097477216	1.5266021549051523	-1.0659493521329229
847	221	221	Vilhelmina 636	Vilhelmina	Yes	7.5Y	 4/1	Dark	Gray streaked with black	Quartzite	Point preform	Preform	MV	Granular	Medium-grained	Waxy	None	None	Conchoidal	No	Dark mineral inclusion	MV	Medium	-2.1519003200051934	1.6373812686682365	-0.5188627890562738
875	205	205	Vilhelmina 931	Vilhelmina	No	7.5Y	 8/1	Light	Opaque	Quartzite	Point preform	Preform	MV	Granular	Fine-grained	Bright vitreous	None	None	Smooth	Yes	MV	MV	Medium	3.8569210290281073	-1.353462181128481	-1.3633028655551784
876	206	206	Vilhelmina 854	Vilhelmina	Yes	2.5Y	 9/1	Light	Light gray	Quartzite	Point	Point	MV	Granular	Medium-grained	Dull	None	None	Fine	No	Bands of quartz	White discoloration	Medium	5.829229109770191	0.19668873509417228	0.8142951211058838
877	216	216	MV	Vilhelmina	Yes	N1	 	Dark	Black	Quartzite	Preform	Preform	MV	Granular	Medium-grained	Bright vitreous	None	None	Conchoidal	Yes	MV	MV	Large	-1.1273794613997499	1.77158446766526	-0.5050754557681614
878	213	213	MV	Vilhelmina	No	N3	 	Dark	Gray	Quartzite	Preform	Preform	MV	Granular	Medium-grained	Bright vitreous	None	None	Conchoidal	No	Dark mineral inclusion	MV	Large	-1.6459709130951738	1.1442093818259882	-0.564101410398574
879	212	212	Vilhelmina 636	Vilhelmina	No	5Y	 6/1	Light	Gray streaked with black	Quartzite	Point preform	Preform	MV	Granular	Medium-grained	Waxy	None	None	Conchoidal	No	Dark mineral inclusion	MV	Large	-2.309905869432932	1.0373899764245462	-2.2200835002063832
880	210	210	Vilhelmina 619	Vilhelmina	No	N1	 	Dark	Gray	Quartzite	Point preform	Preform	MV	Granular	Medium-grained	Bright vitreous	None	None	Smooth	Yes	MV	MV	Medium	5.3928429595042635	-1.5625124920436055	-0.3629549576114516
881	211	211	Vilhelmina 931	Vilhelmina	No	2.5Y	 8/2	Light	Opaque	Quartzite	Point	Point	MV	Granular	Fine-grained	Bright vitreous	Possible bedding	None	Smooth	Yes	MV	MV	Small	3.4612563113706196	-1.037098137535344	0.5178644144323539
882	209	209	Vilhelmina 941	Vilhelmina	No	2.5Y	 8/1	Light	Opaque	Breccie quartz	Arrow point	Point	MV	Massive	Fine-grained	Waxy	None	None	Fine	No	Dark mineral grains	MV	Medium	3.268324986770575	-2.1549009883114256	-0.15252689799823244
884	208	208	Vilhelmina 636	Vilhelmina	No	5Y	 4/2	Dark	Gray streaked with black	Quartzite	Point preform	Preform	MV	Granular	Fine-grained	Waxy	None	None	Conchoidal	No	Dark mineral inclusion	MV	Medium	-3.3242581366107387	1.2056445381817917	-1.1817324671188627
885	207	207	Vilhelmina 542	Vilhelmina	No	5Y	 3/2	Dark	Gray streaked with black	Quartzite	Point preform	Preform	MV	Granular	Medium-grained	Waxy	None	None	Conchoidal	No	Dark mineral inclusion	MV	Medium	4.725937499112538	-1.2677214559742196	-2.2950735306172687
887	200	200	Vilhelmina 611	Vilhelmina	Yes	N1	 	Dark	Black	Quartzite	Point preform	Preform	MV	Granular	Medium-grained	Waxy	None	None	Conchoidal	Yes	MV	MV	Medium	-3.837231245082129	0.38091269868075867	-1.0748076523635524
888	198	198	MV	Vilhelmina	Yes	N1	 	Dark	Black	Quartzite	Point preform	Preform	MV	Granular	Medium-grained	Waxy	None	None	Conchoidal	Yes	MV	Iron oxide	Large	-2.38685245545727	-0.2173507097279758	-0.12735522415364242
889	195	195	Vilhelmina 240	Vilhelmina	No	5Y	 7/3	Light	Opaque	Breccie quartz	Point fragment	Point fragment	MV	Granular	Fine-grained	Waxy	None	None	Conchoidal	No	Dark mineral grains	MV	Large	-2.4683709705391252	-0.5780231380686125	0.48989628230912124
890	194	194	Vilhelmina 619	Vilhelmina	No	N1	 	Dark	Black	Quartzite	Point preform	Preform	MV	Granular	Medium-grained	Bright vitreous	None	None	Conchoidal	Yes	MV	MV	Medium	4.157925840026829	-1.2035829816112902	-0.9681524698169155
891	201	201	Vilhelmina 636	Vilhelmina	Yes	5Y	 6/1	Light	Gray streaked with black	Quartzite	Point preform	Preform	MV	Granular	Medium-grained	Dull	None	None	Conchoidal	No	Dark mineral inclusion	Iron oxide	Large	-1.131143717906636	1.2032308112911507	0.8230380827014557
892	202	202	Vilhelmina 168	Vilhelmina	No	N3	 	Dark	Gray streaked with white	Quartzite	Arrow point	Point	MV	Massive	Fine-grained	Bright vitreous	None	None	Conchoidal	No	Mineral inclusion	MV	Small	-0.7162534777201714	1.4876701157294938	-0.08464143801820885
893	203	203	Vilhelmina 168	Vilhelmina	No	5Y	 7/1	Light	Opaque	Quartz	Point preform	Preform	MV	Granular	Fine-grained	Waxy	None	None	Conchoidal	Yes	MV	MV	Medium	-3.024687394374468	-1.524227283488019	1.2452799933992662
894	204	204	Vilhelmina 619	Vilhelmina	No	N1	 	Dark	Black	Quartzite	Point preform	Preform	MV	Granular	Medium-grained	Waxy	None	None	Conchoidal	Yes	MV	MV	Medium	-2.749232416705989	0.4063572728162215	-0.21629550654897986
895	214	214	Vilhelmina 619	Vilhelmina	No	N1	 	Dark	Black	Quartzite	Point preform	Preform	MV	Granular	Medium-grained	Waxy	None	None	Smooth	Yes	MV	MV	Medium	5.952342799358219	-0.5280809317953504	-0.4180607514910834
896	215	215	Vilhelmina 619	Vilhelmina	No	N1	 	Dark	Black	Quartzite	Point preform	Preform	MV	Granular	Medium-grained	Waxy	None	None	Smooth	Yes	MV	Iron oxide	Medium	-1.8929521506259996	-0.4981177554793476	0.8900048726696941
897	193	193	Vilhelmina 619	Vilhelmina	No	N1	 	Dark	Black	Quartzite	Point preform	Preform	MV	Granular	Medium-grained	Waxy	None	None	Conchoidal	Yes	MV	MV	Large	5.495592964374418	-2.1600408713383574	-1.2259103118995465
898	196	196	Vilhelmina 643	Vilhelmina	Yes	5Y	 2/1	Dark	Black	Quartzite	Point preform	Preform	MV	Granular	Medium-grained	Waxy	None	None	Conchoidal	Yes	MV	MV	Large	-1.4875604776961855	1.8715829554805195	0.5545906661355735
899	197	197	Vilhelmina 643	Vilhelmina	Yes	5Y	 3/1	Dark	Gray	Quartzite	Point preform	Preform	MV	Granular	Medium-grained	Bright vitreous	None	None	Conchoidal	No	Dark mineral inclusion	MV	Large	4.72102859950314	-0.7685337855614982	-1.623234226627038
900	240	240	Vilhelmina 948	Vilhelmina	No	7.5Y	 4/1	Light	Gray	Quartzite	Point preform	Preform	MV	Granular	Medium-grained	Bright vitreous	None	None	Fine	No	Mineral grains	MV	Large	-0.8758219646929607	0.6920749048071513	1.547062542500859
901	241	241	Vilhelmina 115	Vilhelmina	No	5Y	 3/2	Dark	Brown streaked with black	Quartzite	Arrow point preform	Preform	MV	Conglomerate	Fine-grained	Waxy	Bedding	None	Smooth	No	Bands of quartz	MV	Large	3.008761979522776	4.551708146562346	0.8846194976871398
902	242	242	MV	Vilhelmina	No	N9	 	White	White	Quartzite	Point preform	Preform	MV	Granular	Medium-grained	Dull	None	Possible foliation	Conchoidal	Yes	MV	MV	Medium	4.878993061385295	-0.8697516487644613	1.313086761693074
903	243	243	Vilhelmina 181	Vilhelmina	No	N3	 	Light	Gray	Quartzite	Arrow point preform	Preform	MV	Granular	Medium-grained	Bright vitreous	None	None	Fine	No	Dark mineral inclusion	MV	Medium	5.384799698460316	-1.0868345162032769	-0.0707860557340552
904	244	244	Vilhelmina 115	Vilhelmina	No	7.5Y	 7/1	Light	Gray	Quartzite	Arrow point	Point	MV	Granular	Fine-grained	Dull	None	None	Fine	Yes	MV	MV	Medium	-0.7540619881629333	0.3345706656246041	1.04082423346833
905	245	245	Vilhelmina 118	Vilhelmina	No	5Y	 9/2	Light	Opaque	Quartzite	Point preform	Preform	MV	Granular	Fine-grained	Bright vitreous	None	None	Conchoidal	Yes	MV	MV	Medium	-3.4538361260669603	-0.6082458076695911	-0.6195070725798584
906	246	246	Vilhelmina 117	Vilhelmina	No	7.5Y	 8/2	White	White	Quartzite	Point preform	Preform	MV	Massive	Fine-grained	Bright vitreous	None	None	Conchoidal	Yes	MV	MV	Medium	-1.5288944293363376	0.007552504377290956	-0.27569968861764216
907	247	247	Vilhelmina 31	Vilhelmina	Yes	7.5Y	 7/1	Light	Light gray	Quartzite	Point preform	Preform	MV	Granular	Medium-grained	Dull	None	None	Conchoidal	Yes	MV	MV	Medium	-0.9862952358911519	0.6450638213040043	1.532672920916494
908	248a	248	MV	Vilhelmina	No	2.5Y	 3/2	Dark	Gray streaked with black	Quartzite	Point preform	Preform	gray side	Granular	Medium-grained	Waxy	None	None	Conchoidal	No	Dark mineral inclusion	MV	Large	6.299188348087917	-0.2451778418908801	-0.5793243553904744
909	248b	248	MV	Vilhelmina	No	2.5Y	 3/2	Dark	Gray streaked with black	Quartzite	Point preform	Preform	black mineral side	Granular	Medium-grained	Waxy	None	None	Conchoidal	No	Dark mineral inclusion	MV	Large	-1.3407219846026284	1.1336817485219828	-0.4901344886010643
910	249	249	Vilhelmina 115	Vilhelmina	No	7.5Y	 3/2	Dark	Gray streaked with black	Quartzite	Point preform	Preform	MV	Massive	Medium-grained	Bright vitreous	None	None	Conchoidal	No	Dark mineral inclusion	MV	Large	5.452592399930252	-1.815214628212803	-1.4110311928257842
912	251	251	Vilhelmina 356	Vilhelmina	No	N1	 	Dark	Black	Quartzite	Point preform	Preform	MV	Granular	Medium-grained	Waxy	None	None	Smooth	Yes	MV	MV	Medium	-0.8833955149372525	0.9778236098389036	-0.30631277651443295
913	252	252	MV	Vilhelmina	No	N8	 	Light	Opaque	Quartz	Preform	Preform	MV	Massive	Massive	Bright vitreous	None	None	Irregular	Yes	MV	MV	Medium	-4.568487832646852	-2.789806002148455	-0.5384145872420303
914	253	253	Vilhelmina 118	Vilhelmina	No	5Y	 5/1	Light	Gray streaked with black	Quartzite	Spear point preform	Preform	MV	Granular	Medium-grained	Waxy	None	None	Fine	No	Dark mineral inclusion	MV	Large	-1.1049337567563955	0.6127036866199416	-1.989866473171909
915	254	254	Vilhelmina 118	Vilhelmina	No	5Y	 5/1	Light	Gray streaked with black	Quartzite	Spear point preform	Preform	MV	Granular	Medium-grained	Waxy	None	None	Conchoidal	No	Dark mineral inclusion	MV	Large	-1.8419542224201466	0.45336727135353155	-1.632343993594009
916	255	255	Vilhelmina 118	Vilhelmina	No	5Y	 8/1	Light	Opaque	Quartzite	Point preform	Preform	MV	Granular	Medium-grained	Bright vitreous	None	None	Conchoidal	Yes	MV	MV	Large	-2.462420733568701	0.08092985585884485	-0.21660192766095251
917	256	256	Vilhelmina 190	Vilhelmina	Yes	7.5Y	 7/1	Light	Light gray	Quartzite	Point preform	Preform	MV	Granular	Medium-grained	Dull	None	None	Conchoidal	No	Dark mineral inclusion	MV	Large	-1.6339493797474787	-1.1298180964646065	1.59958497043483
919	259	259	Vilhelmina 117	Vilhelmina	No	N1	 	Dark	Black	Quartzite	Point	Point	MV	Granular	Fine-grained	Waxy	None	None	Smooth	Yes	MV	MV	Small	5.364829517925624	-0.9000023978105344	-1.6468598923683113
920	258	258	Vilhelmina 115	Vilhelmina	No	N2	 	Dark	Gray	Quartzite	Arrow point	Point	MV	Granular	Fine-grained	Waxy	None	None	Smooth	No	Bands of quartz	MV	Small	-1.7842983054001604	0.3875579505321617	1.3752820322530623
921	260	260	Vilhelmina 118	Vilhelmina	No	7.5Y	 6/1	Light	Opaque	Quartzite	Point preform	Preform	MV	Granular	Fine-grained	Waxy	None	Foliated	Conchoidal	No	Dark mineral inclusion	MV	Large	-4.25924775420649	-2.0741422830450804	0.7069922120832396
922	261	261	Vilhelmina 118	Vilhelmina	No	5Y	 9/1	Light	Opaque	Quartzite	Point preform	Preform	MV	Granular	Fine-grained	Waxy	None	None	Smooth	No	Dark mineral grains	MV	Medium	-4.66850532570581	-3.191657502298429	0.6198368042583957
923	262	262	Vilhelmina 117	Vilhelmina	No	N1	 	Dark	Black	Quartzite	Point preform	Preform	MV	Massive	Fine-grained	Waxy	None	None	Smooth	Yes	MV	MV	Medium	-2.5846358917298926	-0.7886766358028218	0.7960863335556297
925	264	264	Vilhelmina 95	Vilhelmina	No	2.5Y	 6/8	Light	Orange	Quartzite	Point preform	Preform	MV	Granular	Medium-grained	Bright vitreous	None	None	Conchoidal	Yes	MV	MV	Medium	-2.3005845444679442	0.4159392581043363	0.7038998071768018
926	265	265	Vilhelmina 114	Vilhelmina	No	N1	 	Dark	Black	Quartzite	Arrow point	Point	MV	Granular	Medium-grained	Waxy	None	None	Fine	Yes	MV	MV	Medium	4.176261727243897	-0.871517242207899	0.1308490717544666
928	267	267	Vilhelmina 115	Vilhelmina	No	7.5Y	 6/2	Light	Gray streaked with black	Quartzite	Arrow point	Point	MV	Granular	Fine-grained	Bright vitreous	None	None	Smooth	No	Dark mineral inclusion	MV	Small	-3.9854582049309606	0.47033338830789273	-1.1744108922405816
929	268	268	Vilhelmina 235	Vilhelmina	No	N2	 	Dark	Gray	Quartzite	Arrow point	Point	MV	Granular	Fine-grained	Waxy	None	None	Fine	No	Bands of quartz	MV	Medium	-1.9511371180716837	1.5520898009764232	0.3226515319160001
930	269	269	Vilhelmina 115	Vilhelmina	No	10Y	 4/2	Light	Gray	Quartzite	Arrow point	Point	MV	Granular	Fine-grained	Bright vitreous	None	None	Smooth	Yes	MV	MV	Small	-2.8336312125063485	0.3927717729509193	0.7601258279634598
931	270	270	Vilhelmina 33	Vilhelmina	No	10Y	 7/1	Light	Gray	Quartzite	Arrow point preform	Preform	MV	Granular	Fine-grained	Bright vitreous	None	None	Wave weathered	No	Dark mineral inclusion and bands of quartz	MV	Small	-0.839757845884308	-0.15390056551479794	2.328960013843936
932	271	271	Vilhelmina 31	Vilhelmina	No	10Y	 7/1	Light	Gray	Quartzite	Point preform	Preform	MV	Granular	Medium-grained	Bright vitreous	None	None	Fine	No	Bands of quartz	MV	Medium	-0.11697225877354062	0.6011984058259667	1.474489750940431
933	272	272	Vilhelmina 114	Vilhelmina	No	N1	 	Dark	Black	Quartzite	Point preform	Preform	MV	Granular	Medium-grained	Waxy	None	None	Smooth	No	Bands of quartz	MV	Medium	5.9025039600820755	-0.5931961147730164	-1.7089386559124442
934	273	273	Vilhelmina 552	Vilhelmina	No	7.5Y	 7/1	Light	Light gray	Quartzite	Point preform	Preform	MV	Granular	Medium-grained	Bright vitreous	None	None	Fine	Yes	MV	MV	Medium	6.095417442054416	-0.87943069243717	1.1789831985580672
935	274	274	MV	Vilhelmina	Yes	10Y	 3/1	Dark	Gray	Quartzite	Point preform	Preform	MV	Granular	Medium-grained	Bright vitreous	None	None	Conchoidal	No	Bands of quartz	MV	Large	-0.7907013735092632	1.2682477550381623	-0.4918317341077922
936	275	275	Vilhelmina 948	Vilhelmina	No	5Y	 8/2	Light	Opaque	Breccie quartz	Arrow point	Point	MV	Massive	Fine-grained	Waxy	None	Possible foliation	Fine	No	Dark mineral grains	MV	Medium	0.9154106564729906	-2.8432589125336833	-0.4282726582181749
937	277	277	Vilhelmina 181	Vilhelmina	No	N1	 	Dark	Black	Quartzite	Arrow point	Point	MV	Granular	Fine-grained	Bright vitreous	None	None	Fine	Yes	MV	MV	Medium	-1.2063436664276175	1.7244941953616706	-2.48814600551976
938	278	278	Vilhelmina 118	Vilhelmina	No	5Y	 4/2	Light	Gray streaked with black	Quartzite	Spear point preform	Preform	MV	Granular	Medium-grained	Bright vitreous	None	None	Conchoidal	No	Dark mineral inclusion	MV	Large	-1.4576090076915496	0.6423685139696793	-1.8836342773356411
939	276	276	Vilhelmina 552	Vilhelmina	No	N2	 	Dark	Gray	Quartzite	Point preform	Preform	MV	Granular	Medium-grained	Bright vitreous	None	None	Conchoidal	Yes	MV	MV	Large	-2.617924126418889	0.2759281638261128	-1.4468419365348613
941	279	279	Vilhelmina 816	Vilhelmina	No	5Y	 9/1	Light	Opaque	Quartzite	Point preform	Preform	MV	Granular	Fine-grained	Waxy	None	None	Fine	No	Dark mineral grains	MV	Large	-2.113507791960313	0.03921487360688277	1.779794013168358
942	280	280	Vilhelmina 117	Vilhelmina	No	N2	 	Dark	Gray streaked with black	Quartzite	Point preform	Preform	MV	Granular	Medium-grained	Bright vitreous	None	None	Fine	No	Dark mineral inclusion	MV	Medium	5.010033433640397	-0.9097541763129033	-0.7487544967024723
943	281	281	Vilhelmina 356	Vilhelmina	No	5Y	 4/2	Light	Gray streaked with black	Quartzite	Point preform	Preform	MV	Granular	Medium-grained	Bright vitreous	None	None	Conchoidal	No	Dark mineral inclusion	MV	Large	-1.5192782530463023	0.6490959117965974	-1.1045490359682557
944	282	282	Vilhelmina 263	Vilhelmina	No	N2	 	Dark	Black	Quartzite	Point preform	Preform	MV	Granular	Medium-grained	Waxy	None	None	Smooth	Yes	MV	MV	Medium	-2.489886961838843	0.4109129085304082	0.05311764709920972
945	283	283	Vilhelmina 252	Vilhelmina	No	2.5Y	 8/1	Dark	Gray streaked with black	Quartzite	Point preform	Preform	MV	Granular	Fine-grained	Dull	None	None	Smooth	No	Dark mineral inclusion and white discoloration	MV	Medium	0.18476558285590744	1.5772361644230635	1.3438522153733998
946	284	284	Vilhelmina 252	Vilhelmina	No	5Y	 6/3	Light	Opaque	Quartzite	Point	Point	MV	Granular	Fine-grained	Bright vitreous	None	None	Smooth	Yes	MV	MV	Small	5.993464249017811	-0.7518041332677811	-0.5746016407950091
948	286	286	Tärna 34	Tärna	Yes	5Y	 7/2	Light	Opaque	Breccie quartz	Point preform	Preform	MV	Granular	Fine-grained	Waxy	None	None	Conchoidal	No	Dark mineral grains	MV	Large	-1.9908525385521667	1.455256320331866	0.7095035588652024
950	288	288	Tärna 594	Tärna	Yes	5Y	 8/2	Light	Opaque	Breccie quartz	Point preform	Preform	MV	Granular	Fine-grained	Waxy	None	Possible foliation	Conchoidal	No	Dark mineral grains	MV	Large	3.13110215004992	-1.7958351254750997	-0.8281942139058637
951	289	289	Tärna 14	Tärna	No	5Y	 8/1	Light	Opaque	Breccie quartz	Point preform	Preform	MV	Granular	Fine-grained	Waxy	None	None	Fine	No	Dark mineral grains	MV	Medium	-5.018715206249621	-1.9188144597181134	-0.8269714725830467
952	290	290	Tärna 34	Tärna	Yes	5Y	 7/6	Light	Opaque	Breccie quartz	Point preform	Preform	MV	Granular	Fine-grained	Waxy	None	None	Conchoidal	No	Dark mineral grains	Iron oxide	Medium	-3.269116587622986	-0.3147996453210088	0.6667537733476389
953	291	291	Tärna 34	Tärna	Yes	5Y	 9/1	Light	Opaque	Breccie quartz	Point preform	Preform	MV	Granular	Fine-grained	Waxy	None	None	Conchoidal	No	Dark mineral grains	MV	Medium	-1.9148660938573043	0.3469522162034736	0.7178840888034165
955	293	293	Tärna 39	Tärna	Yes	5Y	 8/1	Light	Opaque	Breccie quartz	Point preform	Preform	MV	Granular	Fine-grained	Waxy	None	None	Conchoidal	No	Dark mineral grains	MV	Large	-2.719350597321628	-0.2558036178864083	1.0435644599909661
956	294	294	MV	Tärna	No	5Y	 8/1	Light	Opaque	Breccie quartz	Point preform	Preform	MV	Granular	Fine-grained	Waxy	None	None	Conchoidal	Yes	MV	MV	Medium	4.467612475551523	-0.799811109065207	-0.5106762938799714
957	295	295	Tärna 549	Tärna	Yes	5Y	 9/1	Light	Opaque	Breccie quartz	Arrow point preform	Preform	MV	Granular	Fine-grained	Waxy	None	Possible foliation	Conchoidal	No	Dark mineral grains	MV	Medium	-1.9697739924338817	-0.06874067684286118	1.1604486212726581
958	296	296	Tärna 549	Tärna	No	5Y	 9/1	Light	Opaque	Breccie quartz	Point preform	Preform	MV	Granular	Fine-grained	Waxy	Possible bedding	None	Conchoidal	No	Bands of dark mineral	MV	Medium	4.298076189239932	-1.0146795577227807	-0.2253834298002076
959	297	297	Tärna 549	Tärna	No	5Y	 9/1	Light	Opaque	Breccie quartz	Point preform	Preform	MV	Granular	Fine-grained	Waxy	None	None	Conchoidal	No	Dark mineral grains	MV	Small	-3.0748925694416833	-0.46662625296927107	1.3127714970946585
960	298	298	Tärna 610	Tärna	Yes	7.5Y	 9/1	Light	Opaque	Breccie quartz	Point preform	Preform	MV	Granular	Fine-grained	Bright vitreous	None	None	Fine	No	Dark mineral grains	MV	Large	-3.4817034244311036	-0.5942334796873575	1.4999516603027745
961	299	299	Tärna 594	Tärna	Yes	5Y	 9/1	Light	Opaque	Breccie quartz	Point preform	Preform	MV	Granular	Fine-grained	Bright vitreous	None	None	Conchoidal	No	Dark mineral grains	MV	Large	-1.4114261181669887	1.8102354276169133	0.3216999548987534
962	300	300	Tärna 37	Tärna	No	5Y	 9/1	Light	Opaque	Breccie quartz	Point preform	Preform	MV	Granular	Fine-grained	Waxy	None	None	Conchoidal	No	Dark mineral grains	MV	Medium	-1.961088311972815	-0.5165346481943922	0.7925995313316259
963	301	301	Tärna 549	Tärna	No	5Y	 9/1	Translucent	Translucent	Breccie quartz	Arrow point	Point	MV	Massive	Fine-grained	Waxy	None	None	Fine	No	Dark mineral grains and bands of quartz	MV	Small	-4.0529754820805355	-2.427724734791932	-0.32797418370931847
964	302	302	Tärna 593	Tärna	Yes	5Y	 9/1	Light	Opaque	Breccie quartz	Point preform	Preform	MV	Massive	Fine-grained	Waxy	None	None	Fine	No	Dark mineral grains	MV	Medium	-3.023323949593911	-0.39901598057341414	0.06973047856986704
965	303	303	MV	Tärna	No	5Y	 9/1	Light	Opaque	Breccie quartz	Point preform	Preform	MV	Massive	Fine-grained	Waxy	None	None	Fine	No	Dark mineral grains	MV	Medium	-3.9503354467304352	-0.9575915939964468	0.33111630970277095
966	304	304	Tärna 549	Tärna	No	5Y	 6/1	Light	Opaque	Breccie quartz	Arrow point	Point	MV	Granular	Fine-grained	Waxy	None	None	Fine	No	Dark mineral grains	MV	Small	-4.280673014899837	-0.25980107431821886	0.17347548077058014
967	305	305	Tärna 565	Tärna	No	2.5GY	 9/1	Light	Opaque	Breccie quartz	Point preform	Preform	MV	Massive	Fine-grained	Waxy	None	None	Conchoidal	No	Dark mineral grains	MV	Large	-3.3524866847340133	-1.9765551623477524	-0.8639368689885918
968	306	306	MV	Tärna	Yes	5Y	 5/4	Light	Opaque	Breccie quartz	Point	Point	MV	Massive	Fine-grained	Waxy	None	None	Conchoidal	No	Dark mineral grains	MV	Large	-2.380831589014035	-0.6813435091942229	0.17124668307118066
969	307	307	Tärna 656	Tärna	Yes	N8	 	Light	Opaque	Breccie quartz	Point preform	Preform	MV	Granular	Medium-grained	Waxy	None	None	Conchoidal	No	Bands of dark mineral	Iron oxide	Large	-4.32189840062561	-1.7398855912482663	-0.4026920755127341
971	308	308	MV	Tärna	No	2.5Y	 9/1	Translucent	Translucent	Breccie quartz	Point fragment	Point	MV	Massive	Fine-grained	Waxy	None	Possible foliation	Smooth	No	Dark mineral grains	MV	Medium	3.1726626137716765	-1.4207917000236627	-2.5289850710551725
972	309	309	Tärna 610	Tärna	No	7.5Y	 5/2	Light	Opaque	Breccie quartz	Point preform	Preform	MV	Granular	Medium-grained	Waxy	None	None	Fine	No	Dark mineral inclusion	MV	Medium	-3.9132499936572755	-0.4440436845541195	-0.2151147632033688
973	310	310	Tärna 610	Tärna	No	2.5Y	 9/1	Light	Opaque	Breccie quartz	Point preform	Preform	MV	Granular	Medium-grained	Waxy	None	Possible foliation	Fine	No	Dark mineral grains	MV	Medium	5.21879836005213	-0.3802631368505286	-0.6102058927251419
974	311	311	Tärna 549	Tärna	No	5Y	 9/1	Translucent	Translucent	Breccie quartz	Point preform	Preform	MV	Massive	Fine-grained	Waxy	None	None	Fine	No	Dark mineral grains	MV	Medium	-4.380285176387167	-2.260513727817573	0.7045528439260431
975	312	312	MV	Tärna	No	5Y	 9/1	Translucent	Translucent	Breccie quartz	Arrow point	Point	MV	Massive	Fine-grained	Waxy	None	None	Fine	No	Dark mineral grains	MV	Small	-2.869556926140042	-0.9079736900185041	0.8848659710369281
976	313	313	Tärna 549	Tärna	No	2.5Y	 9/1	Light	Opaque	Breccie quartz	Arrow point	Point	MV	Massive	Fine-grained	Waxy	None	None	Conchoidal	No	Dark mineral grains	MV	Medium	-4.91210591678394	-0.8385255206510004	-0.3786235884536371
977	314	314	MV	Tärna	No	2.5Y	 9/1	Light	Opaque	Breccie quartz	Point fragment	Point fragment	MV	Massive	Fine-grained	Waxy	None	None	Fine	No	Dark mineral grains	MV	Medium	-2.12758388227759	0.10112653805383895	0.8131423043124127
978	315	315	MV	Tärna	No	5Y	 8/2	Light	Opaque	Breccie quartz	Preform	Preform	MV	Granular	Fine-grained	Waxy	None	None	Conchoidal	No	Dark mineral grains	MV	Large	-3.1495518110130525	-0.8300378551516121	0.4565311610627627
979	316	316	Tärna 594	Tärna	Yes	2.5Y	 9/1	Light	Opaque	Breccie quartz	Point preform	Preform	MV	Granular	Fine-grained	Waxy	None	None	Conchoidal	No	Dark mineral grains	MV	Large	-3.8754150273088217	-1.4946331023264672	0.12535789780455692
980	318	318	Tärna 89	Tärna	Yes	2.5Y	 4/3	Translucent	Translucent	Quartzite	Point preform	Preform	MV	Granular	Fine-grained	Bright vitreous	None	None	Smooth	Yes	MV	MV	Medium	-1.7023267248283978	0.5160936798759277	0.7793800906437253
981	319	319	MV	Tärna	No	2.5Y	 9/1	Light	Opaque	Breccie quartzite	Point preform	Preform	MV	Granular	Fine-grained	Waxy	None	None	Smooth	No	Dark mineral inclusion	MV	Medium	1.739103423363619	-2.6174345209718797	-1.9650825730367
983	322	322	Vilhelmina 977	Vilhelmina	No	N1	 	Dark	Black	Quartzite	Point	Point	MV	Granular	Fine-grained	Bright vitreous	None	None	Conchoidal	Yes	MV	MV	Medium	3.8518792847983714	-0.8967574586469488	-0.2580258729405752
984	323	323	Vilhelmina 977	Vilhelmina	No	5Y	 6/2	Dark	Gray streaked with black	Quartzite	Arrow point	Point	MV	Granular	Fine-grained	Bright vitreous	None	None	Fine	No	Dark mineral inclusion	MV	Medium	4.323592004720036	-0.07969892855849166	-0.9119424213332726
985	324	324	Vilhelmina 977	Vilhelmina	Yes	5Y	 6/2	Dark	Gray streaked with black	Quartzite	Arrow point preform	Preform	MV	Granular	Fine-grained	Bright vitreous	None	None	Fine	No	Dark mineral inclusion	MV	Medium	-2.4554010526188796	1.7391972659817148	-1.5046081379213132
986	325a	325	MV	Vilhelmina	No	N9	 	Light	Light gray streaked with white	Quartzite	Preform	Preform	Gray side	Granular	Fine-grained	Dull	None	None	Fine	No	White discoloration	MV	Large	-0.8062295647575444	2.1547243414237665	0.7454044832966307
987	325b	325	MV	Vilhelmina	No	N9	 	Light	Light gray streaked with white	Quartzite	Preform	Preform	White side	Granular	Fine-grained	Dull	None	None	Fine	No	White discoloration	MV	Large	-0.9790352462786707	0.2775673288253256	1.535945580105995
988	326	326	MV	Vilhelmina	No	N9	 	White	White	Quartzite	Arrow point	Point	MV	Granular	Fine-grained	Dull	None	None	Fine	No	Bands of quartz	MV	Small	-1.353125507667137	1.0370178514225925	1.6760687813893331
989	327	327	Vilhelmina 977	Vilhelmina	No	N9	 	Light	Light gray streaked with white	Quartzite	Arrow point	Point	MV	Granular	Fine-grained	Dull	None	None	Fine	No	White discoloration	MV	Small	-2.7635649061862373	0.3927038783495065	1.6855370579483264
990	328	328	MV	Vilhelmina	Yes	N9	 	White	White	Quartzite	Arrow point preform	Preform	MV	Granular	Fine-grained	Dull	None	None	Conchoidal	No	White discoloration	MV	Medium	-1.1193819251834345	2.1072326831414534	1.6858129149229704
991	329	329	Vilhelmina 977	Vilhelmina	No	N2	 	Dark	Black	Quartzite	Point preform	Preform	MV	Granular	Fine-grained	Bright vitreous	None	None	Fine	Yes	MV	MV	Small	3.8519864493276934	-0.9723386497444895	-0.9596594247076404
992	330	330	Vilhelmina 977	Vilhelmina	No	N2	 	Dark	Black	Quartzite	Arrow point	Point	MV	Massive	Fine-grained	Bright vitreous	None	None	Conchoidal	Yes	MV	MV	Small	-4.5472388539505015	-1.4756662569301289	0.9494606813383963
993	331	331	Vilhelmina 977	Vilhelmina	No	5Y	 4/1	Dark	Gray streaked with black	Quartzite	Arrow point	Point	MV	Granular	Fine-grained	Bright vitreous	None	None	Conchoidal	No	Dark mineral inclusion	MV	Medium	-2.9435553373789176	1.2045686082424725	-2.683628315961488
994	332	332	MV	Vilhelmina	No	5Y	 4/1	Dark	Gray streaked with black	Quartzite	Arrow point	Point	MV	Granular	Fine-grained	Waxy	None	None	Conchoidal	No	Dark mineral inclusion	MV	Small	-4.2017112205335945	0.43516889078184107	-0.582681199991244
995	333	333	Vilhelmina 977	Vilhelmina	No	N1	 	Dark	Black	Quartzite	Arrow point	Point	MV	Granular	Fine-grained	Bright vitreous	None	None	Fine	Yes	MV	MV	Medium	4.416938661644166	-0.6345907983481386	-0.8235949447011433
996	334	334	Vilhelmina 977	Vilhelmina	No	N9	 	White	White	Quartzite	Arrow point preform	Preform	MV	Granular	Fine-grained	Dull	None	None	Fine	No	White discoloration	MV	Small	-2.0163378200467634	1.104129935595374	1.5425110354768898
997	335	335	MV	Vilhelmina	No	N1	 	Dark	Black	Quartzite	Arrow point preform	Preform	MV	Granular	Fine-grained	Waxy	None	None	Fine	Yes	MV	MV	Small	-4.22678205659648	0.21787947154630788	-0.46270149424651175
998	336	336	MV	Vilhelmina	No	N9	 	White	White	Quartzite	Arrow point	Point	MV	Granular	Fine-grained	Dull	None	None	Fine	Yes	MV	MV	Small	-2.2620745727848157	-0.724468038328603	1.7832816961691011
999	337	337	MV	Vilhelmina	No	N3	 	Dark	Gray	Quartzite	Arrow point	Point	MV	Massive	Fine-grained	Bright vitreous	None	None	Fine	Yes	MV	MV	Small	3.8511320586066318	-1.103709725905758	-0.5494499298707367
1002	339	339	Lycksele 335	Lycksele	No	N9	 	White	White	Quartzite	Point preform	Preform	MV	Granular	Fine-grained	Bright vitreous	None	None	Irregular	Yes	MV	MV	Medium	-4.027045599371136	-1.0303427304461823	0.7446190294014903
1003	343	343	MV	Lycksele	Yes	N1	 	Dark	Black	Quartzite	Preform	Preform	MV	Granular	Medium-grained	Waxy	None	None	Conchoidal	Yes	MV	MV	Large	-4.422842366954634	-1.0312772795378118	0.08883105892426399
1004	341	341	Lycksele 335	Lycksele	Yes	2.5Y	 9/1	Light	Opaque	Quartzite	Point preform	Preform	MV	Granular	Fine-grained	Bright vitreous	None	Foliated	Conchoidal	Yes	MV	MV	Medium	5.331251306846977	-0.2786797372040583	1.352106941497878
1005	338	338	MV	Lycksele	Yes	N2	 	Dark	Gray	Quartzite	Point preform	Preform	MV	Granular	Medium-grained	Bright vitreous	None	None	Fine	Yes	MV	MV	Large	6.572074928379972	0.1777413764339629	-0.8011721508078484
1467	434	434	Lycksele 301	Lycksele	Yes	2.5Y	 6/3	Light	Opaque	Quartzite	Point	Point	MV	Massive	Fine-grained	Dull	None	Foliated	Fine	Yes	MV	MV	Small	6.413929239070038	-0.38421614928664355	-0.2564070217671826
1468	435	435	Lycksele 301	Lycksele	Yes	N1	 	Dark	Black	Quartzite	Point	Point	MV	Massive	Fine-grained	Bright vitreous	None	None	Fine	Yes	MV	MV	Small	-1.7113249115896791	1.4919550065220542	0.08732840468476005
1469	436	436	Lycksele 301	Lycksele	Yes	N3	 	Dark	Dark gray	Quartzite	Point	Point	MV	Granular	Fine-grained	Bright vitreous	None	None	Fine	Yes	MV	Iron oxide	Medium	5.669073615683458	-0.5355800665210728	-0.7264690024096747
1472	439	439	Lycksele 301	Lycksele	No	7.5Y	 3/1	Dark	Gray	Quartzite	Point	Point	MV	Granular	Fine-grained	Waxy	None	None	Conchoidal	Yes	MV	MV	Medium	-3.2862118205542843	0.28067984240100646	-2.445809295890328
1473	440	440	Lycksele 301	Lycksele	Yes	N2	 	Dark	Gray	Quartzite	Point	Point	MV	Massive	Medium-grained	Dull	None	None	Fine	Yes	MV	MV	Medium	-4.602816356337965	-1.23533825844809	-0.4290769721447272
1474	441	441	Lycksele 301	Lycksele	Yes	7.5Y	 2/1	Dark	Gray streaked with black	Quartzite	Point	Point	MV	Granular	Medium-grained	Waxy	None	None	Fine	No	Bands of dark mineral	MV	Medium	4.669894764814491	-1.3008367942131898	-2.773293646251448
1475	442	442	Lycksele 301	Lycksele	No	N1	 	Dark	Black	Quartzite	Point	Point	MV	Massive	Fine-grained	Dull	None	None	Conchoidal	Yes	MV	Iron oxide	Medium	4.6154297998492515	-1.0221991248843123	-1.8065334984813985
1477	444	444	Lycksele 301	Lycksele	Yes	N2	 	Dark	Gray streaked with black	Quartzite	Point	Point	MV	Massive	Fine-grained	Dull	None	Foliated	Fine	No	Bands of dark mineral	MV	Small	5.855428989085744	-1.4514467488863905	-2.121565604672157
1478	445	445	Lycksele 301	Lycksele	No	N3	 	Dark	Black streaked with white	Quartzite	Point	Point	MV	Massive	Fine-grained	Dull	None	None	Fine	No	MV	MV	Small	7.253747927318327	0.7774084384241787	1.7584956927906104
1479	446	446	Lycksele 301	Lycksele	Yes	7.5Y	 7/2	Light	Opaque	Quartzite	Point	Point	MV	Granular	Fine-grained	Waxy	None	None	Conchoidal	Yes	MV	MV	Medium	5.038891079954142	-1.2322492151680466	-1.1674630106863289
1485	450	450	Lycksele 301	Lycksele	No	N2	 	Dark	Dark gray streaked with black	Quartzite	Point	Point	MV	Massive	Fine-grained	Waxy	None	None	Fine	No	Bands of dark mineral	MV	Medium	-2.443940727827314	0.232615354459301	0.27673248880667267
1486	451	451	Lycksele 301	Lycksele	No	N1	 	Dark	Dark gray	Quartzite	Point	Point	MV	Massive	Fine-grained	Waxy	None	None	Fine	Yes	MV	MV	Small	6.0207703925955345	-0.5707735395564744	-0.13155903710763048
1487	452	452	Lycksele 301	Lycksele	No	2.5Y	 9/1	Translucent	Translucent	Quartzite	Point	Point	MV	Granular	Fine-grained	Bright vitreous	None	None	Fine	No	Bands of quartz	MV	Small	4.294663800680923	-1.2455840392901634	-0.18499019089686808
1488	453	453	Lycksele 301	Lycksele	No	2.5Y	 7/2	Light	Opaque	Quartz	Point	Point	MV	Granular	Fine-grained	Waxy	None	None	Fine	Yes	MV	MV	Medium	-3.124182696210079	-0.4287067937293863	0.3721630467940298
1491	455	455	Lycksele 301	Lycksele	Yes	5Y	 8/2	Light	Opaque	Quartzite	Point	Point	MV	Massive	Fine-grained	Bright vitreous	None	None	Fine	Yes	MV	MV	Small	-3.001656541212286	0.6265255398249452	0.17725478571605255
1494	457	457	Lycksele 301	Lycksele	No	5Y	 7/2	White	White	Quartzite	Point	Point	MV	Granular	Fine-grained	Bright vitreous	None	None	Fine	Yes	MV	MV	Medium	-4.416002006404027	-0.5355795892099532	-1.1749557671454838
1495	458	458	Lycksele 301	Lycksele	No	N3	 	Dark	Gray streaked with white	Quartzite	Point	Point	MV	Granular	Fine-grained	Bright vitreous	None	None	Fine	No	MV	MV	Medium	-1.8882328815490108	1.0114130175757212	1.958599851967315
1496	459	459	Lycksele 301	Lycksele	Yes	N1	 	Dark	Black	Quartzite	Point	Point	MV	Granular	Fine-grained	Bright vitreous	None	None	Fine	No	MV	Iron oxide	Medium	8.407954639629091	-0.22491910471833307	1.7192980004027238
1497	460	460	Lycksele 301	Lycksele	Yes	N1	 	Dark	Black	Quartzite	Point	Point	MV	Granular	Fine-grained	Bright vitreous	None	None	Fine	No	MV	MV	Small	-1.8017662715580292	1.1418078456564371	0.3603318688465152
1499	462	462	Lycksele 301	Lycksele	Yes	N2	 	Dark	Dark gray streaked with black	Quartzite	Point	Point	MV	Massive	Medium-grained	Waxy	None	None	Fine	No	Bands of dark mineral	MV	Medium	-3.1737703677026117	0.8334508037653063	-0.3599113753568519
1500	463	463	Lycksele 301	Lycksele	No	N9	 	Light	Opaque	Quartzite	Point	Point	MV	Granular	Fine-grained	Bright vitreous	None	None	Conchoidal	Yes	MV	MV	Medium	4.725704376905274	-1.2964984655062533	0.8977961490096455
1501	464	464	Lycksele 301	Lycksele	No	N2	 	Dark	Gray	Quartzite	Point	Point	MV	Massive	Fine-grained	Waxy	None	None	Fine	No	Bands of dark mineral	MV	Medium	-2.5445873251540534	-0.498358331535185	3.3499162151825486
1502	465	465	Lycksele 301	Lycksele	Yes	N8	 	Light	Opaque	Quartzite	Point	Point	MV	Massive	Fine-grained	Bright vitreous	None	None	Fine	Yes	MV	Possibly iron oxide patina on half	Medium	-5.779817962705224	-1.8655949011140454	-0.6477791145237022
1503	466	466	Lycksele 301	Lycksele	No	N2	 	Dark	Gray	Quartzite	Point	Point	MV	Massive	Fine-grained	Waxy	None	None	Fine	Yes	MV	MV	Medium	5.550088599474991	-0.6064162737414903	-1.343033154997099
1504	467	467	Lycksele 301	Lycksele	Yes	N8	 	White	White	Quartzite	Point	Point	MV	Granular	Fine-grained	Dull	None	None	Fine	Yes	MV	MV	Small	-4.083183467866351	-0.8361084563650285	-1.0399446589459445
1506	469	469	Lycksele 301	Lycksele	Yes	MV	 	Light	Opaque	Quartz	Point	Point	MV	Massive	Fine-grained	Dull	None	None	Fine	Yes	Bands of quartz	MV	Small	6.5706964057139405	0.06522777460920541	0.226811556877565
1508	471	471	Lycksele 301	Lycksele	Yes	N4	 	Dark	Gray	Quartzite	Point	Point	MV	Granular	Medium-grained	Bright vitreous	None	None	Fine	No	Bands of quartz	MV	Small	-0.7075334922324378	2.6013202363375134	-1.5894244919541485
1512	475	475	Lycksele 301	Lycksele	No	N9	 	White	White	Quartz	Point	Point	MV	Granular	Fine-grained	Bright vitreous	None	None	Fine	Yes	MV	MV	Small	-3.5040517794530053	-2.231001693740093	0.12214258217967389
1513	476	476	Lycksele 301	Lycksele	No	N2	 	Dark	Dark gray	Quartzite	Point	Point	MV	Granular	Fine-grained	Bright vitreous	None	None	Fine	Yes	MV	MV	Small	-5.026664998933252	-0.1337787110426206	-1.0650104873798583
1514	477	477	Lycksele 301	Lycksele	No	N3	 	Dark	Gray	Quartzite	Point	Point	MV	Granular	Fine-grained	Waxy	None	None	Fine	Yes	MV	MV	Medium	3.7963786693764687	-1.1116018843114859	-2.270608569471955
1516	479	479	Lycksele 301	Lycksele	Yes	7.5Y	 7/1	Light	Light gray	Quartzite	Point	Point	MV	Granular	Fine-grained	Dull	None	None	Fine	Yes	MV	MV	Small	-2.941787020832058	-0.12753730435504182	2.6359243645391612
1517	480	480	Lycksele 301	Lycksele	No	N1	 	Dark	Black	Quartzite	Point	Point	MV	Massive	Fine-grained	Waxy	None	None	Fine	Yes	MV	MV	Small	-2.3766875859415997	-0.24241150813118537	-1.2290909843801514
1519	481	481	Lycksele 301	Lycksele	No	N1	 	Dark	Black	Quartzite	Point	Point	MV	Massive	Fine-grained	Waxy	None	None	Fine	Yes	MV	MV	Medium	7.259615004262532	0.11572086305587465	-0.6325025607996937
1520	482	482	Lycksele 301	Lycksele	Yes	N1	 	Dark	Black streaked with white	Quartzite	Point	Point	MV	Granular	Medium-grained	Bright vitreous	None	Possible foliation	Fine	No	MV	MV	Medium	1.1352147849249197	3.630618141024163	1.1164365041427633
1522	484	484	Lycksele 301	Lycksele	Yes	5Y	 7/1	Light	Opaque	Quartzite	Point	Point	MV	Granular	Fine-grained	Bright vitreous	None	None	Irregular	Yes	MV	MV	Medium	-2.8881994768997017	-0.7646842171894291	-1.029185082248188
1523	485	485	Lycksele 301	Lycksele	Yes	N9	 	White	White	Quartzite	Point	Point	MV	Granular	Fine-grained	Waxy	None	None	Fine	Yes	MV	Pink color and possibly charcoal and iron oxide	Medium	-2.5885443031896873	0.010447661395998132	-0.042474403155503763
1524	486	486	Lycksele 301	Lycksele	Yes	N1	 	Dark	Black	Quartzite	Arrow point	Point	MV	Granular	Fine-grained	Waxy	None	None	Fine	No	Mineral grains	MV	Small	-2.232225098798044	1.607200792931705	-0.539594247261621
1525	487	487	Lycksele 301	Lycksele	No	2.5Y	 9/1	Light	Opaque	Quartzite	Point	Point	MV	Granular	Fine-grained	Waxy	None	None	Fine	Yes	MV	MV	Medium	-4.973792521624617	-1.394206898784734	-0.9066452442408888
1526	488	488	Lycksele 301	Lycksele	Yes	N1	 	Dark	Black	Quartzite	Arrow point	Point	MV	Granular	Medium-grained	Dull	None	Foliated	Fine	Yes	MV	MV	Medium	6.196099489394702	-1.6193411641243947	-1.9880292260350891
1527	489	489	Lycksele 301	Lycksele	Yes	N1	 	Dark	Black	Quartzite	Point	Point	MV	Granular	Medium-grained	Bright vitreous	None	Foliated	Fine	No	Mineral grains	MV	Medium	-0.5877013711768508	1.087963961945506	-2.109670712960784
1528	490	490	Lycksele 301	Lycksele	No	N9	 	White	White	Quartzite	Arrow point	Point	MV	Granular	Fine-grained	Bright vitreous	None	Foliated	Fine	Yes	MV	MV	Medium	-6.314529126650614	-2.9419837815688585	0.23241146551279201
1040	344	344	Dorotea 120	Dorotea	Yes	N1	 	Dark	Black	Quartzite	Point preform	Preform	MV	Massive	Fine-grained	Waxy	None	None	Conchoidal	Yes	MV	MV	Medium	7.060389751241269	-0.4607413446900386	-0.2848908786922724
1041	345	345	Dorotea 362	Dorotea	No	5Y	 4/1	Light	Gray	Quartzite	Point	Point	MV	Granular	Medium-grained	Bright vitreous	None	None	Fine	No	Dark mineral	MV	Medium	-0.9246474760420296	0.8889875405641651	-2.355840751951358
1042	346	346	Dorotea 11	Dorotea	Yes	N2	 	Dark	Black	Quartzite	Point preform	Preform	MV	Granular	Medium-grained	Bright vitreous	None	None	Conchoidal	Yes	MV	MV	Large	4.358935207988818	-1.270765953223966	-1.238821252761381
1043	347	347	Dorotea 632	Dorotea	No	5Y	 7/1	Light	Light gray streaked with black	Quartzite	Point	Point	MV	Massive	Fine-grained	Dull	None	None	Fine	No	Bands of dark mineral	MV	Medium	5.007301369914611	-0.6046220651775405	1.4028557372458887
1044	348	348	Dorotea 159:1	Dorotea	Yes	5Y	 3/1	Dark	Gray streaked with black	Quartzite	Point preform	Preform	MV	Granular	Fine-grained	Dull	None	None	Conchoidal	No	Bands of dark mineral	MV	Medium	-1.4983485330285056	1.4809540397737748	0.02907939449646394
1045	349	349	Dorotea 159:1	Dorotea	No	7.5Y	 4/1	Dark	Gray streaked with black	Quartzite	Point preform	Preform	MV	Granular	Fine-grained	Dull	None	None	Fine	No	Bands of dark mineral	MV	Medium	4.633764695157366	-0.502111740941849	-0.7630560518892976
1046	350	350	Dorotea 159:1	Dorotea	No	N2	 	Dark	Gray streaked with black	Quartzite	Point preform	Preform	MV	Granular	Fine-grained	Dull	None	None	Fine	No	Bands of dark mineral	MV	Medium	5.9483563167404485	-0.8700291267413494	0.22003706387990557
1047	351	351	Dorotea 159:1	Dorotea	No	N2	 	Dark	Gray streaked with black	Quartzite	Point preform	Preform	MV	Granular	Fine-grained	Bright vitreous	None	Possible foliation	Fine	No	Bands of dark mineral	MV	Medium	5.941942730306291	-0.6215757793198656	-0.29323746024749114
1048	352	352	Dorotea 286:1	Dorotea	Yes	7.5Y	 8/1	Light	Light gray	Quartzite	Point preform	Preform	MV	Massive	Medium-grained	Bright vitreous	None	None	Fine	No	Dark mineral	MV	Medium	-0.9426086833729875	1.1136920678675586	0.9853765820039792
1049	353	353	Dorotea 7	Dorotea	No	5Y	 7/2	White	White	Quartzite	Point preform	Preform	MV	Massive	Fine-grained	Waxy	None	None	Smooth	Yes	MV	MV	Medium	3.900494987393379	-1.331195209545091	-1.019133022397991
1055	358	358	Tärna 20	Tärna	No	N3	 	Light	Gray	Quartzite	Point	Point	MV	Granular	Fine-grained	Bright vitreous	None	None	Fine	Yes	MV	MV	Medium	5.505044454106192	-0.8527020639409715	-2.0252716949393657
1056	359	359	Vilhelmina 444	Vilhelmina	No	N2	 	Dark	Black	Quartzite	Point preform	Preform	MV	Granular	Medium-grained	Waxy	None	None	Conchoidal	No	Bands of quartz	MV	Medium	3.981569143082842	-1.4810602514904074	-0.9027329214732948
1057	360	360	MV	Vilhelmina	No	N1	 	Dark	Black	Quartzite	Arrow point fragment	Point fragment	MV	Granular	Fine-grained	Waxy	None	None	Fine	No	Bands of quartz	MV	Small	7.94478202242171	-0.17704160929541937	-0.6586933520175964
1058	361	361	MV	Tärna	Yes	N1	 	Dark	Black	Quartzite	Spear point	Point	MV	Granular	Medium-grained	Bright vitreous	None	None	Conchoidal	Yes	MV	MV	Large	-2.803378364407127	0.595007931818579	-1.777310129750512
1059	362	362	MV	Tärna	No	N3	 	Dark	Gray	Quartzite	Arrow point	Point	MV	Granular	Fine-grained	Waxy	None	None	Fine	No	Bands of quartz	MV	Medium	4.8522599423111314	-0.551320599640318	-0.14819751926064806
1060	363	363	Tärna 33	Tärna	No	N1	 	Dark	Black	Quartzite	Arrow point	Point	Stod sample 364 i xrf sample name	Granular	Fine-grained	Bright vitreous	None	None	Fine	Yes	MV	MV	Medium	-1.7813804305915784	1.066863413434992	-1.1865920606477243
1408	377	377	Vilhelmina 115	Vilhelmina	Yes	N1	 	Dark	Black	Quartzite	Point preform	Preform	MV	Granular	Medium-grained	Bright vitreous	None	None	Smooth	Yes	MV	Iron oxide	Medium	1.8975418160323088	2.5493621380300504	-1.4616503013312394
1409	378	378	Vilhelmina 444	Vilhelmina	Yes	5Y	 3/1	Dark	Dark gray streaked with black	Quartzite	Point preform	Preform	MV	Massive	Medium-grained	Dull	Possible bedding	None	Smooth	No	MV	Iron oxide	Medium	-0.08109975104236428	2.7426094438777504	-2.3490735539125933
1410	379_1	379	MV	Tärna	No	5Y	 9/3	Light	White streaked with black	Quartzite	Point preform	Preform	White part	Massive	Fine-grained	Dull	None	None	Smooth	No	Bands of dark mineral	MV	Medium	-4.388553922292797	-1.735609454521973	-0.1799568551752158
1411	379_2	379	MV	Tärna	No	5Y	 9/3	Light	White streaked with black	Quartzite	Point preform	Preform	Black part	Massive	Fine-grained	Dull	None	None	Smooth	No	Bands of dark mineral	MV	Medium	-5.003355157059582	-1.6166253688936554	0.5658106807020752
1412	380	380	Tärna 20	Tärna	Yes	5YR	 5/6	Light	Red	Quartzite	Point preform	Preform	MV	Granular	Medium-grained	Bright vitreous	None	None	Fine	Yes	MV	MV	Medium	-0.6016319129361988	0.8962315499271295	1.3193652038786199
1416	384	384	Vilhelmina 444	Vilhelmina	No	2.5Y	 3/3	Light	Gray streaked with black	Quartzite	Point preform	Preform	MV	Granular	Medium-grained	Dull	None	None	Fine	No	Bands of dark mineral	MV	Medium	-3.630654896575224	1.2459914975791495	-1.0361081790907862
1417	385	385	Vilhelmina 444	Vilhelmina	Yes	N3	 	Light	Light gray	Quartzite	Point preform	Preform	MV	Granular	Medium-grained	Bright vitreous	None	None	Fine	Yes	MV	MV	Medium	-2.2346725728392163	-0.29858638277588206	1.6085124790399277
1418	386	386	Vilhelmina 439	Vilhelmina	No	N2	 	Dark	Dark gray streaked with black	Quartzite	Spearpoint	Point	MV	Granular	Medium-grained	Bright vitreous	Possible bedding	None	Fine	No	Bands of dark mineral	MV	Medium	-1.853720587862386	1.990740733805732	-1.1465523768013257
1419	387	387	Vilhelmina 399	Vilhelmina	Yes	N9	 	White	White	Quartzite	Point fragment	Point fragment	MV	Massive	Fine-grained	Bright vitreous	None	None	Fine	Yes	MV	MV	Small	-3.002443718982335	-0.16040319487594026	1.5204460747927002
1420	388	388	Vilhelmina 399	Vilhelmina	Yes	2.5Y	 9/1	Light	Opaque	Quartzite	Point	Point	MV	Granular	Fine-grained	Waxy	None	None	Smooth	Yes	MV	MV	Small	-3.6278676523818865	-1.9135201252968315	1.6443945602972307
1422	390	390	Vilhelmina 115	Vilhelmina	No	7.5Y	 6/2	Light	Opaque	Quartzite	Point preform	Preform	MV	Massive	Fine-grained	Dull	None	None	Conchoidal	Yes	MV	MV	Medium	5.195960430199964	-1.4906447017680151	0.8515084288273116
1423	391	391	Vilhelmina 115	Vilhelmina	No	N1	 	Dark	Black	Quartzite	Arrow point	Point	MV	Granular	Fine-grained	Dull	None	None	Fine	Yes	MV	MV	Small	-1.8256244056216806	-0.2977662396707847	0.39782653825661574
1424	392	392	Vilhelmina 117	Vilhelmina	No	N1	 	Dark	Black	Quartzite	Arrow point fragment	Point fragment	MV	Granular	Fine-grained	Waxy	None	None	Fine	Yes	MV	MV	Small	-1.5134633228534045	-0.012782358612327504	-0.6041980776652783
1425	393	393	Vilhelmina 115	Vilhelmina	No	N1	 	Dark	Black	Quartzite	Point preform	Preform	MV	Massive	Fine-grained	Dull	None	Foliated	Conchoidal	Yes	MV	MV	Medium	0.040885211578817394	0.22038577209055138	2.0716996282090587
1426	394	394	Vilhelmina 399	Vilhelmina	Yes	7.5Y	 8/1	Light	Light gray	Quartzite	Point	Point	Sample point on base fragment	Granular	Fine-grained	Bright vitreous	None	None	Fine	Yes	MV	MV	Medium	-1.1543929624357274	0.6315485133989215	1.330363032016388
1427	395	395	MV	Vilhelmina	No	N1	 	Dark	Gray streaked with black	Quartzite	Point preform	Preform	MV	Granular	Fine-grained	Waxy	None	None	Conchoidal	No	Bands of dark mineral	MV	Medium	-1.7087897591187953	1.5273797532015156	0.21582939210220783
1429	397	397	Vilhelmina 450	Vilhelmina	No	N1	 	Dark	Black	Quartzite	Point	Point	MV	Granular	Fine-grained	Bright vitreous	None	None	Smooth	No	Bands of quartz	MV	Medium	5.110759277257376	-0.5347970851309166	-1.6769854878627268
1430	398	398	MV	Vilhelmina	No	7.5Y	 8/1	Light	Opaque	Quartz	Point fragment	Point fragment	MV	Granular	Fine-grained	Bright vitreous	None	None	Fine	No	Dark mineral grains	MV	Medium	-4.26981300146256	-2.960431700079193	-0.7556613392398295
1431	399	399	MV	Vilhelmina	No	7.5Y	 5/1	Light	Gray	Quartzite	Arrow point fragment	Point fragment	MV	Granular	Fine-grained	Bright vitreous	None	None	Fine	Yes	MV	MV	Small	-1.9093946683826493	1.1596472276424217	-0.9217258979984636
1432	400	400	Vilhelmina 109	Vilhelmina	No	2.5Y	 9/1	Light	Opaque	Quartzite	Point preform	Preform	MV	Granular	Fine-grained	Waxy	None	None	Conchoidal	Yes	MV	MV	Medium	-3.9315657133823025	-2.323471207602592	0.8074741379628154
1433	401	401	Vilhelmina 444	Vilhelmina	Yes	5Y	 4/1	Dark	Gray	Quartzite	Point preform	Preform	MV	Granular	Fine-grained	Waxy	None	None	Smooth	Yes	MV	MV	Small	-2.3145684898403056	2.236927558080986	0.02131753236197747
1434	402	402	Vilhelmina 444	Vilhelmina	Yes	N6	 	Light	Light gray	Quartzite	Point preform	Preform	MV	Massive	Fine-grained	Bright vitreous	None	None	Conchoidal	Yes	MV	MV	Medium	-3.344769259005737	0.15968330056705268	-1.2020880854600402
1435	403	403	Vilhelmina 439	Vilhelmina	No	N1	 	Dark	Black	Quartzite	Point fragment	Point fragment	MV	Granular	Fine-grained	Bright vitreous	None	None	Fine	Yes	MV	MV	Small	-2.096734084874103	1.305320934991499	-1.5675121392700115
1436	404	404	Vilhelmina 450	Vilhelmina	Yes	N1	 	Dark	Black	Quartzite	Point preform	Preform	MV	Massive	Medium-grained	Waxy	None	None	Conchoidal	Yes	MV	MV	Medium	-1.2752033594146712	2.71519149308114	-1.0893478648891892
1437	405	405	Vilhelmina 216	Vilhelmina	Yes	N4	 	Dark	Black	Quartzite	Point preform	Preform	MV	Granular	Medium-grained	Waxy	None	None	Conchoidal	Yes	MV	MV	Medium	-4.0488262323462445	-0.21786781047697967	-0.3599423464365817
1438	406	406	Vilhelmina 245	Vilhelmina	No	5Y	 4/1	Dark	Gray streaked with black	Quartzite	Point preform	Preform	MV	Granular	Medium-grained	Waxy	None	None	Fine	No	Bands of dark mineral	MV	Medium	-2.2420127468697806	0.29137784420080765	-1.0779589874878488
1439	407	407	Vilhelmina 411	Vilhelmina	No	2.5Y	 9/1	Light	Opaque	Quartzite	Point fragment	Point fragment	MV	Granular	Fine-grained	Waxy	None	None	Fine	No	Dark mineral grains	MV	Large	-4.334736475123283	-1.1985369119108393	-0.06402021438583186
1440	408	408	Vilhelmina 769	Vilhelmina	No	N1	 	Dark	Black	Quartzite	Arrow point	Point	MV	Granular	Fine-grained	Waxy	None	None	Fine	Yes	MV	MV	Small	-3.397368783302505	-0.3339399337540083	0.08111918432013172
1441	409	409	Vilhelmina 791	Vilhelmina	No	N1	 	Dark	Black	Quartzite	Point	Point	MV	Massive	Medium-grained	Waxy	None	None	Fine	Yes	MV	MV	Medium	-1.2133202309784072	1.5538134755151145	-1.1866107371154615
1442	410	410	Vilhelmina 1069	Vilhelmina	No	N1	 	Dark	Black	Quartzite	Point fragment	Point fragment	MV	Granular	Medium-grained	Waxy	None	None	Fine	No	Bands of quartz	MV	Medium	7.052048594750533	-0.18617298440092406	-0.166740009114418
1443	411	411	Vilhelmina 1124	Vilhelmina	No	N1	 	Dark	Black	Quartzite	Point	Point	MV	Granular	Medium-grained	Dull	None	None	Fine	Yes	MV	MV	Medium	5.935057131325868	-0.5796839645207942	-1.1723272348084894
1445	413	413	Vilhelmina 637	Vilhelmina	No	N1	 	Dark	Black	Quartzite	Point	Point	MV	Granular	Fine-grained	Waxy	None	None	Fine	Yes	MV	MV	Medium	-2.2803360462455022	1.2307120932536237	-1.3848596615953677
1446	414	414	Vilhelmina 643	Vilhelmina	No	N5	 	Light	Light gray streaked with black	Quartzite	Point preform	Preform	MV	Granular	Fine-grained	Waxy	None	None	Conchoidal	No	Bands of dark mineral	MV	Large	-0.10291757524751548	2.011166322899001	-0.4608150647677582
1447	415	415	Vilhelmina 643	Vilhelmina	Yes	N3	 	Dark	Black	Quartzite	Point preform	Preform	MV	Granular	Fine-grained	Waxy	None	None	Conchoidal	Yes	MV	MV	Large	6.863328257938413	-0.42390781923290677	-0.14429516666469908
1448	416	416	Vilhelmina 643	Vilhelmina	Yes	N1	 	Dark	Black	Quartzite	Point preform	Preform	MV	Granular	Medium-grained	Waxy	None	None	Fine	Yes	MV	MV	Medium	-2.569010867257306	0.41735360140529126	-0.44431619725922483
1449	417	417	Vilhelmina 1127	Vilhelmina	No	N1	 	Dark	Black	Quartzite	Point preform	Preform	MV	Granular	Medium-grained	Dull	None	None	Conchoidal	Yes	MV	MV	Medium	-2.2437765019420497	1.7388414335560516	-0.8268286915767609
1450	418	418	MV	Vilhelmina	Yes	N1	 	Dark	Black	Quartzite	Arrow point	Point	MV	Granular	Fine-grained	Dull	None	None	Fine	No	Bands of quartz	MV	Medium	0.23658324697316285	1.9108340035183338	-0.9485971775109486
1451	419	419	MV	Vilhelmina	No	2.5Y	 4/4	Dark	Brown streaked with black	Quartzite	Point preform	Preform	MV	Granular	Medium-grained	Bright vitreous	None	None	Conchoidal	No	Bands of dark mineral	MV	Medium	-2.1443511848563124	0.14221937481245464	-0.28717300849459715
1452	420	420	MV	Vilhelmina	No	N8	 	Light	Light gray streaked with black	Quartzite	Arrow point	Point	MV	Granular	Medium-grained	Waxy	None	None	Fine	No	Dark mineral inclusion	MV	Large	-1.2158272216612025	0.41879476495717666	1.4688888837418654
1453	421	421	MV	Vilhelmina	No	N9	 	White	White	Quartzite	Arrow point fragment	Point fragment	MV	Granular	Fine-grained	Bright vitreous	None	None	Fine	Yes	MV	MV	Small	-0.4164840776100672	0.8893096850035941	1.097611814361144
1454	422	422	MV	Vilhelmina	No	2.5Y	 8/1	Light	Opaque	Quartzite	Arrow point	Point	MV	Granular	Fine-grained	Waxy	None	None	Fine	No	Dark mineral inclusion	MV	Medium	5.808420652579744	-0.7698821916739447	0.6676556084215041
1455	423	423	Åsele 273	Åsele	Yes	N1	 	Dark	Black	Quartzite	Point preform	Preform	MV	Granular	Medium-grained	Waxy	None	None	Conchoidal	No	Mineral grains	MV	Large	-1.904369872788929	1.1336386247832102	0.716791435652286
1456	424	424	Åsele 182	Åsele	No	N1	 	Dark	Black	Quartzite	Arrow point	Point	MV	Granular	Medium-grained	Bright vitreous	None	None	Fine	No	Bands of quarz	MV	Medium	-1.321292527604929	1.5941330849927227	-2.1505409437785135
1457	425	425	Åsele 182	Åsele	Yes	N1	 	Dark	Black	Quartzite	Point preform	Preform	MV	Granular	Medium-grained	Waxy	None	None	Conchoidal	Yes	MV	MV	Medium	-2.5498831780906297	1.2167589781023251	-2.0891193140256923
1458	426	426	Åsele 56	Åsele	No	5Y	 5/2	Light	Gray streaked with black	Quartzite	Point preform	Preform	MV	Granular	Medium-grained	Bright vitreous	None	None	Conchoidal	No	Bands of dark mineral	MV	Medium	-3.063249436906775	1.4070544229358561	-1.7931813488512112
1459	427	427	Åsele 56	Åsele	No	5Y	 6/1	Light	Gray	Quartzite	Point preform	Preform	MV	Granular	Medium-grained	Bright vitreous	None	None	Conchoidal	No	Bands of quartz	MV	Medium	4.161406008897314	-0.9436747092570585	-3.460987580837447
1460	428	428	Åsele 188	Åsele	Yes	N1	 	Dark	Black	Quartzite	Arrow point	Point	MV	Granular	Fine-grained	Waxy	None	None	Fine	No	Quartz	MV	Medium	5.937806384109828	-0.7810087800535227	-0.5522030438862812
1461	429	429	Vilhelmina 419	Vilhelmina	No	5Y	 7/2	Light	Light gray	Quartzite	Point preform	Preform	MV	Granular	Medium-grained	Waxy	None	None	Fine	No	Bands of quartz	MV	Large	0.36982627124737216	0.6201668595145851	1.2806110791688092
1462	430	430	Vilhelmina 335	Vilhelmina	No	N1	 	Dark	Black	Quartzite	Point preform	Preform	MV	Massive	Fine-grained	Bright vitreous	None	Possible foliation	Conchoidal	Yes	MV	MV	Medium	-0.8289779069120156	0.05371821046099958	-0.5200189082502694
1463	431	431	Vilhelmina 112	Vilhelmina	No	2.5Y	 9/1	Light	Opaque	Quartzite	Arrow point fragment	Point fragment	MV	Granular	Fine-grained	Bright vitreous	None	None	Fine	No	Dark mineral grains	MV	Medium	-2.354389206601548	-1.7346771034875832	0.7292508445532508
1464	432	432	Vilhelmina 399	Vilhelmina	No	N1	 	Dark	Black	Quartzite	Point fragment	Point fragment	MV	Granular	Fine-grained	Waxy	None	None	Fine	Yes	MV	MV	Small	-2.094593803306933	0.6535912649708789	1.3932871324043676
1534	491	491	Raä 123	Skellefteå	Yes	N1	 	Dark	Black	Quartzite	Point preform	Preform	Sample point on lighter side	Granular	Medium-grained	Bright vitreous	None	Foliated	Conchoidal	Yes	MV	MV	Large	7.334635631052557	1.2274216804201132	2.9688872207343118
1535	491	491	Raä 123	Skellefteå	Yes	N1	 	Dark	Black	Quartzite	Point preform	Preform	Sample point on darker side	Granular	Medium-grained	Bright vitreous	None	Foliated	Conchoidal	Yes	MV	MV	Large	1.7100330312283605	4.814046152931107	0.8777518821231666
1536	491	491	Raä 123	Skellefteå	Yes	N1	 	Dark	Black	Quartzite	Point preform	Preform	Sample point on lighter side	Granular	Medium-grained	Bright vitreous	None	Foliated	Conchoidal	Yes	MV	MV	Large	7.055571190174543	1.0766368031540934	2.849243936650937
1537	491	491	Raä 123	Skellefteå	Yes	N1	 	Dark	Black	Quartzite	Point preform	Preform	Sample point on darker side	Granular	Medium-grained	Bright vitreous	None	Foliated	Conchoidal	Yes	MV	MV	Large	2.193128634568924	4.561411058970241	0.7111763767733773
1539	492	492	Raä 123	Skellefteå	Yes	N1	 	Dark	Black	Quartzite	Point preform	Preform	Sample point on lighter side	Granular	Medium-grained	Bright vitreous	None	Foliated	Conchoidal	Yes	MV	MV	Large	2.3496571009619376	4.750306539937992	0.723440400702503
1540	492	492	Raä 123	Skellefteå	Yes	N1	 	Dark	Black	Quartzite	Point preform	Preform	Sample point on dark patina rich side	Granular	Medium-grained	Bright vitreous	None	Foliated	Conchoidal	Yes	MV	MV	Large	2.452484061844147	4.075259063114387	0.6068935381173858
1541	493	493	Raä 123	Skellefteå	Yes	N1	 	Dark	Black	Quartzite	Point preform	Preform	Sample point on lighter side	Massive	Medium-grained	Waxy	None	Foliated	Conchoidal	Yes	MV	MV	Large	2.188811644823322	4.456638022159329	0.7874864496681926
1542	493	493	Raä 123	Skellefteå	Yes	N1	 	Dark	Black	Quartzite	Point preform	Preform	Sample point on darker patina rich side	Massive	Medium-grained	Waxy	None	Foliated	Conchoidal	Yes	MV	MV	Large	2.1904677789956253	4.416797389429287	0.6453494646942627
1543	494	494	Raä 123	Skellefteå	Yes	N1	 	Dark	Black	Quartzite	Point preform	Preform	Sample point on lighter side	Granular	Medium-grained	Waxy	None	Foliated	Conchoidal	Yes	MV	MV	Large	2.4856553148421616	4.8710460897978	1.194497026215836
1544	494	494	Raä 123	Skellefteå	Yes	N1	 	Dark	Black	Quartzite	Point preform	Preform	Sample point on flatter darker patina rich side	Granular	Medium-grained	Waxy	None	Foliated	Conchoidal	Yes	MV	MV	Large	3.506847810360205	4.101334489242702	0.8386581368302339
1545	495	495	Raä 123	Skellefteå	Yes	N1	 	Dark	Black	Quartzite	Point preform	Preform	Sample point on side with less patina	Massive	Medium-grained	Waxy	None	Foliated	Conchoidal	Yes	MV	MV	Large	1.6538416228968111	4.645392014635256	0.592966787487326
1546	495	495	Raä 123	Skellefteå	Yes	N1	 	Dark	Black	Quartzite	Point preform	Preform	Sample point on patina rich side	Massive	Medium-grained	Waxy	None	Foliated	Conchoidal	Yes	MV	MV	Large	1.8542221591147583	4.55838315823147	0.5136619634967278
1547	496	496	Raä 252:1	Bureå	No	5Y	 7/1	Light	Opaque streaked with black	Quartz	Point	Point	Sample point on side without inv. nr. marking	Granular	Fine-grained	Waxy	None	Foliated	Fine	No	Dark mineral inclusion	MV	Small	-4.205877647218791	-1.2966280908114323	-0.9964958763048954
1548	496	496	Raä 252:1	Bureå	No	5Y	 7/1	Light	Opaque streaked with black	Quartz	Point	Point	Sample point on side with inv. nr. marking	Granular	Fine-grained	Waxy	None	Foliated	Fine	No	Dark mineral inclusion	MV	Small	-3.7591539790047537	-0.6665032074444349	0.8978475405018198
1549	497	497	Raä 252:1	Bureå	No	N1	 	Dark	Black	Quartzite	Point	Point	Sample point on side without inv. nr. marking	Granular	Medium-grained	Waxy	None	Foliated	Conchoidal	Yes	MV	MV	Medium	-3.0398292031176832	-0.2633558593125543	-0.3097194547668854
1550	497	497	Raä 252:1	Bureå	No	N1	 	Dark	Black	Quartzite	Point	Point	Sample point on side with inv. nr. marking	Granular	Medium-grained	Waxy	None	Foliated	Conchoidal	Yes	MV	MV	Medium	4.719645621326099	-0.5811854375666679	-0.6311938125108219
1551	498	498	Raä 252:1	Bureå	No	2.5Y	 9/1	Light	Opaque	Quartz	Point	Point	Sample point on side without inv. nr. marking	Massive	Fine-grained	Waxy	Possible bedding	Possible foliation	Fine	Yes	MV	MV	Small	-3.2943993463388828	-0.9690510135600244	1.402592938291953
1552	498	498	Raä 252:1	Bureå	No	2.5Y	 9/1	Light	Opaque	Quartz	Point	Point	Sample point on side with inv. nr. marking	Massive	Fine-grained	Waxy	Possible bedding	Possible foliation	Fine	Yes	MV	MV	Small	-3.160906649905092	-1.328491119736343	1.187197146351229
1553	499	499	Raä 252:1	Bureå	No	N1	 	Dark	Black	Quartzite	Point	Point	Sample point on side without inv. nr. marking	Massive	Medium-grained	Dull	None	None	Conchoidal	No	Dark mineral inclusion	MV	Medium	-2.277926896829947	0.2767160579412188	-0.021843722308877735
1554	499	499	Raä 252:1	Bureå	No	N1	 	Dark	Black	Quartzite	Point	Point	Sample point on side with inv. nr. marking	Massive	Medium-grained	Dull	None	None	Conchoidal	No	Dark mineral inclusion	MV	Medium	-1.0151752690271554	0.9590700406727709	0.01570571513388798
1555	500	500	Raä 252:1	Bureå	No	N1	 	Dark	Dark gray streaked with black	Quartz	Point	Point	Sample point on side without inv. nr. marking	Massive	Fine-grained	Dull	None	None	Fine	No	Either quartz bands in dark quartzite or dark inclusion in quartz	MV	Medium	-1.8122653798258996	0.6087787206141786	-1.1438777407240115
1556	500	500	Raä 252:1	Bureå	No	N1	 	Dark	Dark gray streaked with black	Quartz	Point	Point	Sample point on inv.nr. marking	Massive	Fine-grained	Dull	None	None	Fine	No	Either quartz bands in dark quartzite or dark inclusion in quartz	MV	Medium	-0.8968979549933778	0.7299690580297925	-2.228395831354827
1557	501	501	Raä 99:2	Norsjö	No	N9	 	White	Opaque	Felsitic porphyric quartz	Arrow point	Point	Sample point on side without inv. nr. marking	Granular	Fine-grained	Bright vitreous	None	None	Fine	No	Bands of quartz	MV	Medium	-4.863229468368287	-2.7674739542953204	0.17977900780875525
1558	501	501	Raä 99:2	Norsjö	No	N9	 	White	Opaque	Felsitic porphyric quartz	Arrow point	Point	Sample point on side with inv. nr. marking	Granular	Fine-grained	Bright vitreous	None	None	Fine	No	Bands of quartz	MV	Medium	-5.393810259968764	-3.5670819026884057	0.1614569425517877
1559	502	502	Raä 99:2	Norsjö	No	N3	 	Dark	Gray	Felsitic porphyric quartz	Point preform	Preform	Sample point on side without inv. nr. marking	Massive	Fine-grained	Waxy	None	None	Fine	No	White streaks	MV	Medium	-3.6976184588014767	-1.5449740362077506	0.6629698160320806
1560	502	502	Raä 99:2	Norsjö	No	N3	 	Dark	Gray	Felsitic porphyric quartz	Point preform	Preform	Sample point on inv.nr. marking	Massive	Fine-grained	Waxy	None	None	Fine	No	White streaks	MV	Medium	7.6735199783025925	-3.0753682270427047	1.013073919696114
1561	503	503	Raä 99:2	Norsjö	No	N3	 	Dark	Gray	Felsitic porphyric quartz	Point preform	Preform	Bad measurement	Granular	Fine-grained	Bright vitreous	None	None	Fine	Yes	MV	MV	Small	7.604433469634887	1.811754053250942	1.700927326348798
1562	503	503	Raä 99:2	Norsjö	No	N3	 	Dark	Gray	Felsitic porphyric quartz	Point preform	Preform	Sample point on side without inv. nr. marking	Granular	Fine-grained	Bright vitreous	None	None	Fine	Yes	MV	MV	Small	1.9468137029726982	2.8973776883209448	1.5512265846806617
1563	503	503	Raä 99:2	Norsjö	No	N3	 	Dark	Gray	Felsitic porphyric quartz	Point preform	Preform	Sample point on side with inv. nr. marking	Granular	Fine-grained	Bright vitreous	None	None	Fine	Yes	MV	MV	Small	1.4219874853938788	3.470399643319033	1.7310906957753627
1564	504	504	Raä 99:2	Norsjö	No	7.5Y	 6/1	Light	Light gray	Felsitic porphyric quartz	Point	Point	Sample point on side without inv. nr. marking	Granular	Fine-grained	Bright vitreous	None	None	Conchoidal	Yes	MV	MV	Large	0.5060109134095812	2.7584474648199486	1.6417930487786585
1565	504	504	Raä 99:2	Norsjö	No	7.5Y	 6/1	Light	Light gray	Felsitic porphyric quartz	Point	Point	Sample point on side with inv. nr. marking	Granular	Fine-grained	Bright vitreous	None	None	Conchoidal	Yes	MV	MV	Large	0.9463149524935165	2.6347106896076764	1.2883575294696068
1566	505	505	Raä 99:2	Norsjö	No	N9	 	White	White	Quartz	Arrow point	Point	Sample point near base on lighter side (tip glued)	Granular	Fine-grained	Bright vitreous	None	None	Fine	Yes	MV	MV	Small	0.3576809890711327	2.797264324409276	1.5523377516938885
1567	505	505	Raä 99:2	Norsjö	No	N9	 	White	White	Quartz	Arrow point	Point	Sample point near base on darker side (tip glued)	Granular	Fine-grained	Bright vitreous	None	None	Fine	Yes	MV	MV	Small	1.055918491219879	3.0877689327451883	1.3313074673021863
